ccopy_reg
_reconstructor
p0
(ccom_github_MitjaNemec_SaveRestoreLayout.save_restore_layout
LayoutData
p1
c__builtin__
tuple
p2
(V1.1.2
p3
V(kicad_pcb (version 20211014) (generator pcbnew)\u000a\u000a  (general\u000a    (thickness 4.69)\u000a  )\u000a\u000a  (paper "A4")\u000a  (layers\u000a    (0 "F.Cu" signal)\u000a    (1 "In1.Cu" signal)\u000a    (2 "In2.Cu" signal)\u000a    (31 "B.Cu" signal)\u000a    (32 "B.Adhes" user "B.Adhesive")\u000a    (33 "F.Adhes" user "F.Adhesive")\u000a    (34 "B.Paste" user)\u000a    (35 "F.Paste" user)\u000a    (36 "B.SilkS" user "B.Silkscreen")\u000a    (37 "F.SilkS" user "F.Silkscreen")\u000a    (38 "B.Mask" user)\u000a    (39 "F.Mask" user)\u000a    (40 "Dwgs.User" user "User.Drawings")\u000a    (41 "Cmts.User" user "User.Comments")\u000a    (42 "Eco1.User" user "User.Eco1")\u000a    (43 "Eco2.User" user "User.Eco2")\u000a    (44 "Edge.Cuts" user)\u000a    (45 "Margin" user)\u000a    (46 "B.CrtYd" user "B.Courtyard")\u000a    (47 "F.CrtYd" user "F.Courtyard")\u000a    (48 "B.Fab" user)\u000a    (49 "F.Fab" user)\u000a  )\u000a\u000a  (setup\u000a    (stackup\u000a      (layer "F.SilkS" (type "Top Silk Screen"))\u000a      (layer "F.Paste" (type "Top Solder Paste"))\u000a      (layer "F.Mask" (type "Top Solder Mask") (thickness 0.01))\u000a      (layer "F.Cu" (type "copper") (thickness 0.035))\u000a      (layer "dielectric 1" (type "core") (thickness 1.51) (material "FR4") (epsilon_r 4.5) (loss_tangent 0.02))\u000a      (layer "In1.Cu" (type "copper") (thickness 0.035))\u000a      (layer "dielectric 2" (type "prepreg") (thickness 1.51) (material "FR4") (epsilon_r 4.5) (loss_tangent 0.02))\u000a      (layer "In2.Cu" (type "copper") (thickness 0.035))\u000a      (layer "dielectric 3" (type "core") (thickness 1.51) (material "FR4") (epsilon_r 4.5) (loss_tangent 0.02))\u000a      (layer "B.Cu" (type "copper") (thickness 0.035))\u000a      (layer "B.Mask" (type "Bottom Solder Mask") (thickness 0.01))\u000a      (layer "B.Paste" (type "Bottom Solder Paste"))\u000a      (layer "B.SilkS" (type "Bottom Silk Screen"))\u000a      (copper_finish "None")\u000a      (dielectric_constraints no)\u000a    )\u000a    (pad_to_mask_clearance 0)\u000a    (pcbplotparams\u000a      (layerselection 0x00010fc_ffffffff)\u000a      (disableapertmacros false)\u000a      (usegerberextensions false)\u000a      (usegerberattributes true)\u000a      (usegerberadvancedattributes true)\u000a      (creategerberjobfile true)\u000a      (svguseinch false)\u000a      (svgprecision 6)\u000a      (excludeedgelayer true)\u000a      (plotframeref false)\u000a      (viasonmask false)\u000a      (mode 1)\u000a      (useauxorigin false)\u000a      (hpglpennumber 1)\u000a      (hpglpenspeed 20)\u000a      (hpglpendiameter 15.000000)\u000a      (dxfpolygonmode true)\u000a      (dxfimperialunits true)\u000a      (dxfusepcbnewfont true)\u000a      (psnegative false)\u000a      (psa4output false)\u000a      (plotreference true)\u000a      (plotvalue true)\u000a      (plotinvisibletext false)\u000a      (sketchpadsonfab false)\u000a      (subtractmaskfromsilk false)\u000a      (outputformat 1)\u000a      (mirror false)\u000a      (drillshape 1)\u000a      (scaleselection 1)\u000a      (outputdirectory "")\u000a    )\u000a  )\u000a\u000a  (net 0 "")\u000a  (net 1 "GND")\u000a  (net 2 "Net-(C3004-Pad2)")\u000a  (net 3 "Net-(C3005-Pad2)")\u000a  (net 4 "Net-(C3006-Pad2)")\u000a  (net 5 "Net-(L3001-Pad2)")\u000a  (net 6 "Net-(L3002-Pad2)")\u000a  (net 7 "Net-(L3003-Pad2)")\u000a  (net 8 "/v3s/buck converter V3s/1V2")\u000a  (net 9 "/v3s/buck converter V3s/1V8")\u000a  (net 10 "/v3s/buck converter V3s/3v3")\u000a  (net 11 "/v3s/buck converter V3s/3V0")\u000a  (net 12 "/v3s/buck converter V3s/5V")\u000a\u000a  (footprint "Resistor_SMD:R_0603_1608Metric" (layer "F.Cu")\u000a    (tedit 5F68FEEE) (tstamp 009509d8-3611-45fe-8574-37e0415fef18)\u000a    (at 189.3584 75.6772 90)\u000a    (descr "Resistor SMD 0603 (1608 Metric), square (rectangular) end terminal, IPC_7351 nominal, (Body size source: IPC-SM-782 page 72, https://www.pcb-3d.com/wordpress/wp-content/uploads/ipc-sm-782a_amendment_1_and_2.pdf), generated with kicad-footprint-generator")\u000a    (tags "resistor")\u000a    (property "Sheetfile" "buck_converter_V3s.kicad_sch")\u000a    (property "Sheetname" "buck converter V3s")\u000a    (path "/042db8da-cff7-4ac8-89a4-1790464868eb/82d91010-9c5f-4fff-a514-ef7c0ddecdff/068e7628-9d14-42ee-b9b9-9caf043b9266")\u000a    (attr smd)\u000a    (fp_text reference "R3004" (at 0 -1.25 90 unlocked) (layer "F.SilkS")\u000a      (effects (font (size 0.6 0.6) (thickness 0.09)))\u000a      (tstamp a539a19c-4ec2-4886-aa80-dec518c91697)\u000a    )\u000a    (fp_text value "150K(Ra)" (at 0 1.43 90 unlocked) (layer "F.Fab") hide\u000a      (effects (font (size 1 1) (thickness 0.15)))\u000a      (tstamp 20a59fc4-d54c-42a3-8117-bd4d9d991c04)\u000a    )\u000a    (fp_text user "${REFERENCE}" (at 0 0 90 unlocked) (layer "F.Fab") hide\u000a      (effects (font (size 1 1) (thickness 0.15)))\u000a      (tstamp 576f7915-cbc9-4c48-81cc-55070a9ef0e7)\u000a    )\u000a    (fp_line (start -0.237258 0.5225) (end 0.237258 0.5225) (layer "F.SilkS") (width 0.12) (tstamp 53078d12-4e38-43da-8e87-96f77f4aee3b))\u000a    (fp_line (start -0.237258 -0.5225) (end 0.237258 -0.5225) (layer "F.SilkS") (width 0.12) (tstamp a90fa8bf-8bc7-475c-8f63-1d62ba1a2e1a))\u000a    (fp_line (start -1.48 0.73) (end -1.48 -0.73) (layer "F.CrtYd") (width 0.05) (tstamp 27e6ebf2-8a68-476a-8e49-e7fe68bdb539))\u000a    (fp_line (start -1.48 -0.73) (end 1.48 -0.73) (layer "F.CrtYd") (width 0.05) (tstamp 4d6946e9-a3fd-4ea9-aeee-827440ec0c7e))\u000a    (fp_line (start 1.48 -0.73) (end 1.48 0.73) (layer "F.CrtYd") (width 0.05) (tstamp bbcaf041-75d8-4d5f-8d4d-32804ad397d4))\u000a    (fp_line (start 1.48 0.73) (end -1.48 0.73) (layer "F.CrtYd") (width 0.05) (tstamp e2eb7413-d164-48f0-9b8b-2458316ee6d5))\u000a    (fp_line (start 0.8 -0.4125) (end 0.8 0.4125) (layer "F.Fab") (width 0.1) (tstamp 0b975227-f929-4571-baab-f8c7c90a8497))\u000a    (fp_line (start -0.8 0.4125) (end -0.8 -0.4125) (layer "F.Fab") (width 0.1) (tstamp 3f632fef-0e7f-41aa-bc69-5e3fbdb5ed2a))\u000a    (fp_line (start -0.8 -0.4125) (end 0.8 -0.4125) (layer "F.Fab") (width 0.1) (tstamp 55b80beb-b27a-472d-9015-e0d39b4367a6))\u000a    (fp_line (start 0.8 0.4125) (end -0.8 0.4125) (layer "F.Fab") (width 0.1) (tstamp a932ada5-b5b3-4cef-9167-ff8dea423c58))\u000a    (pad "1" smd roundrect (at -0.825 0 90) (size 0.8 0.95) (layers "F.Cu" "F.Paste" "F.Mask") (roundrect_rratio 0.25)\u000a      (net 8 "/v3s/buck converter V3s/1V2") (pintype "passive") (tstamp e8c94bef-956d-49b7-ae54-e1b4073a986c))\u000a    (pad "2" smd roundrect (at 0.825 0 90) (size 0.8 0.95) (layers "F.Cu" "F.Paste" "F.Mask") (roundrect_rratio 0.25)\u000a      (net 2 "Net-(C3004-Pad2)") (pintype "passive") (tstamp 083715f6-785f-4e79-9ba4-a0e27b33d09f))\u000a    (model "${KICAD6_3DMODEL_DIR}/Resistor_SMD.3dshapes/R_0603_1608Metric.wrl"\u000a      (offset (xyz 0 0 0))\u000a      (scale (xyz 1 1 1))\u000a      (rotate (xyz 0 0 0))\u000a    )\u000a  )\u000a\u000a  (footprint "Inductor_SMD:L_1210_3225Metric" (layer "F.Cu")\u000a    (tedit 5F68FEF0) (tstamp 02b1130c-ba14-4fe1-b314-306ec7a78f01)\u000a    (at 179.0498 72.5954)\u000a    (descr "Inductor SMD 1210 (3225 Metric), square (rectangular) end terminal, IPC_7351 nominal, (Body size source: http://www.tortai-tech.com/upload/download/2011102023233369053.pdf), generated with kicad-footprint-generator")\u000a    (tags "inductor")\u000a    (property "Sheetfile" "buck_converter_V3s.kicad_sch")\u000a    (property "Sheetname" "buck converter V3s")\u000a    (path "/042db8da-cff7-4ac8-89a4-1790464868eb/82d91010-9c5f-4fff-a514-ef7c0ddecdff/b49eb61c-96e4-43b6-8e89-a4bd2ba9a826")\u000a    (attr smd)\u000a    (fp_text reference "L3003" (at 0 2 unlocked) (layer "F.SilkS")\u000a      (effects (font (size 0.6 0.6) (thickness 0.09)))\u000a      (tstamp afa54882-bee5-456d-b187-2be5012fb3b2)\u000a    )\u000a    (fp_text value "2.2uH DCR<0.1R 1.5A" (at 0 2.28 unlocked) (layer "F.Fab") hide\u000a      (effects (font (size 1 1) (thickness 0.15)))\u000a      (tstamp f5176743-dd7e-43bf-9c16-e2f333dd049b)\u000a    )\u000a    (fp_text user "${REFERENCE}" (at 0 0 unlocked) (layer "F.Fab") hide\u000a      (effects (font (size 1 1) (thickness 0.15)))\u000a      (tstamp 38bd1857-aae7-48e2-ac30-837b08416360)\u000a    )\u000a    (fp_line (start -0.602064 -1.36) (end 0.602064 -1.36) (layer "F.SilkS") (width 0.12) (tstamp 2a556e60-e96e-4e42-9cb6-3007a38c21ff))\u000a    (fp_line (start -0.602064 1.36) (end 0.602064 1.36) (layer "F.SilkS") (width 0.12) (tstamp e4684d58-13f9-48d5-8067-17d4dc5ef4e7))\u000a    (fp_line (start -2.28 1.58) (end -2.28 -1.58) (layer "F.CrtYd") (width 0.05) (tstamp 0d145be4-3c43-4c08-b935-4ec458f8a907))\u000a    (fp_line (start -2.28 -1.58) (end 2.28 -1.58) (layer "F.CrtYd") (width 0.05) (tstamp 2c9c2381-22f9-419e-9018-fa0fdb85a0c6))\u000a    (fp_line (start 2.28 1.58) (end -2.28 1.58) (layer "F.CrtYd") (width 0.05) (tstamp 74164601-e8b1-45aa-adf1-8a2378ecc593))\u000a    (fp_line (start 2.28 -1.58) (end 2.28 1.58) (layer "F.CrtYd") (width 0.05) (tstamp c2ce3d60-f99d-47c9-9f0b-b712bc8c0625))\u000a    (fp_line (start 1.6 -1.25) (end 1.6 1.25) (layer "F.Fab") (width 0.1) (tstamp 181bf14b-e05a-48fb-a7fd-f275231b2721))\u000a    (fp_line (start -1.6 1.25) (end -1.6 -1.25) (layer "F.Fab") (width 0.1) (tstamp 31b6bc96-0e9f-473f-8db0-9be09e3ff0d4))\u000a    (fp_line (start -1.6 -1.25) (end 1.6 -1.25) (layer "F.Fab") (width 0.1) (tstamp 9198410f-b506-4d35-a240-25fd711a74d0))\u000a    (fp_line (start 1.6 1.25) (end -1.6 1.25) (layer "F.Fab") (width 0.1) (tstamp f2532be2-2d02-4a70-bbfe-017498f7b82f))\u000a    (pad "1" smd roundrect (at -1.4 0) (size 1.25 2.65) (layers "F.Cu" "F.Paste" "F.Mask") (roundrect_rratio 0.2)\u000a      (net 10 "/v3s/buck converter V3s/3v3") (pinfunction "1") (pintype "passive") (tstamp a2c595ac-6bdc-4656-95b0-8ba884114079))\u000a    (pad "2" smd roundrect (at 1.4 0) (size 1.25 2.65) (layers "F.Cu" "F.Paste" "F.Mask") (roundrect_rratio 0.2)\u000a      (net 7 "Net-(L3003-Pad2)") (pinfunction "2") (pintype "passive") (tstamp f074a412-67ba-4fcc-9473-c2ca14f0d7ed))\u000a    (model "${KICAD6_3DMODEL_DIR}/Inductor_SMD.3dshapes/L_1210_3225Metric.wrl"\u000a      (offset (xyz 0 0 0))\u000a      (scale (xyz 1 1 1))\u000a      (rotate (xyz 0 0 0))\u000a    )\u000a  )\u000a\u000a  (footprint "TestPoint:TestPoint_Pad_D1.0mm" (layer "F.Cu")\u000a    (tedit 5A0F774F) (tstamp 0328dcd4-9cb5-4c1b-a230-1095c9fd91be)\u000a    (at 171 70.25)\u000a    (descr "SMD pad as test Point, diameter 1.0mm")\u000a    (tags "test point SMD pad")\u000a    (property "Sheetfile" "buck_converter_V3s.kicad_sch")\u000a    (property "Sheetname" "buck converter V3s")\u000a    (path "/042db8da-cff7-4ac8-89a4-1790464868eb/82d91010-9c5f-4fff-a514-ef7c0ddecdff/8f414d86-391f-4adb-8c67-a072c85f8e72")\u000a    (attr exclude_from_pos_files)\u000a    (fp_text reference "TP3003" (at 0 -1.448 unlocked) (layer "F.SilkS") hide\u000a      (effects (font (size 0.6 0.6) (thickness 0.09)))\u000a      (tstamp 59762d91-dbc7-4b8d-aec2-1ba076ae55c3)\u000a    )\u000a    (fp_text value "3v3" (at 0 1.25 unlocked) (layer "F.SilkS")\u000a      (effects (font (size 0.6 0.6) (thickness 0.09)))\u000a      (tstamp f35450f2-6e65-4271-b81f-bbd38f2a0dc4)\u000a    )\u000a    (fp_circle (center 0 0) (end 0 0.7) (layer "F.SilkS") (width 0.12) (fill none) (tstamp e0562a62-37a5-4014-b7e5-89df3f17b864))\u000a    (fp_circle (center 0 0) (end 1 0) (layer "F.CrtYd") (width 0.05) (fill none) (tstamp 7c0ca6fb-0bb3-4f2f-8a3e-8ae9efeebb3b))\u000a    (pad "1" smd circle (at 0 0) (size 1 1) (layers "F.Cu" "F.Mask")\u000a      (net 10 "/v3s/buck converter V3s/3v3") (pinfunction "1") (pintype "passive") (tstamp eeef59cc-2688-493c-a327-871b171959d2))\u000a  )\u000a\u000a  (footprint "Capacitor_SMD:C_0603_1608Metric" (layer "F.Cu")\u000a    (tedit 5F68FEEE) (tstamp 10c170e7-4c2b-4188-85ff-489923f76a3b)\u000a    (at 187.8584 77.9272 180)\u000a    (descr "Capacitor SMD 0603 (1608 Metric), square (rectangular) end terminal, IPC_7351 nominal, (Body size source: IPC-SM-782 page 76, https://www.pcb-3d.com/wordpress/wp-content/uploads/ipc-sm-782a_amendment_1_and_2.pdf), generated with kicad-footprint-generator")\u000a    (tags "capacitor")\u000a    (property "Sheetfile" "buck_converter_V3s.kicad_sch")\u000a    (property "Sheetname" "buck converter V3s")\u000a    (path "/042db8da-cff7-4ac8-89a4-1790464868eb/82d91010-9c5f-4fff-a514-ef7c0ddecdff/1b8e037d-2c3e-400d-8f50-bcd791f3df72")\u000a    (attr smd)\u000a    (fp_text reference "C3001" (at 0 -1.25 unlocked) (layer "F.SilkS")\u000a      (effects (font (size 0.6 0.6) (thickness 0.09)))\u000a      (tstamp 49d25272-2eea-45df-a68a-c3d5bd811a5d)\u000a    )\u000a    (fp_text value "10uf" (at 0 1.43 180 unlocked) (layer "F.Fab") hide\u000a      (effects (font (size 1 1) (thickness 0.15)))\u000a      (tstamp bef03e68-86a1-4f80-b121-eb59802a2cfd)\u000a    )\u000a    (fp_text user "${REFERENCE}" (at 0 0 180 unlocked) (layer "F.Fab") hide\u000a      (effects (font (size 1 1) (thickness 0.15)))\u000a      (tstamp 4f77c318-9ce3-477a-b2b6-fff44362b717)\u000a    )\u000a    (fp_line (start -0.14058 0.51) (end 0.14058 0.51) (layer "F.SilkS") (width 0.12) (tstamp c2cd41f7-a350-4154-90ab-c5573160b542))\u000a    (fp_line (start -0.14058 -0.51) (end 0.14058 -0.51) (layer "F.SilkS") (width 0.12) (tstamp cf918b7d-4ac7-4c9d-a29e-f6971b2b8cd5))\u000a    (fp_line (start 1.48 0.73) (end -1.48 0.73) (layer "F.CrtYd") (width 0.05) (tstamp 06a4fc96-b140-47ed-a3e8-de87ff6ce7eb))\u000a    (fp_line (start 1.48 -0.73) (end 1.48 0.73) (layer "F.CrtYd") (width 0.05) (tstamp 693f5025-dcb0-4b18-aeca-b9f62367ccf2))\u000a    (fp_line (start -1.48 0.73) (end -1.48 -0.73) (layer "F.CrtYd") (width 0.05) (tstamp bdfbbd21-cc03-4fba-92a8-5a90f22d4d58))\u000a    (fp_line (start -1.48 -0.73) (end 1.48 -0.73) (layer "F.CrtYd") (width 0.05) (tstamp e1b0a7b5-0081-4719-9818-90178a0df1b2))\u000a    (fp_line (start -0.8 -0.4) (end 0.8 -0.4) (layer "F.Fab") (width 0.1) (tstamp 194ea0a1-ce01-4199-96a6-63d76be1d332))\u000a    (fp_line (start 0.8 -0.4) (end 0.8 0.4) (layer "F.Fab") (width 0.1) (tstamp 27ea0377-62f0-4725-a80e-b29751c431ba))\u000a    (fp_line (start -0.8 0.4) (end -0.8 -0.4) (layer "F.Fab") (width 0.1) (tstamp 9c88f933-88b6-435a-ab32-e53c25d7d4dd))\u000a    (fp_line (start 0.8 0.4) (end -0.8 0.4) (layer "F.Fab") (width 0.1) (tstamp a00e99fb-6573-4947-b8f0-101471dd1274))\u000a    (pad "1" smd roundrect (at -0.775 0 180) (size 0.9 0.95) (layers "F.Cu" "F.Paste" "F.Mask") (roundrect_rratio 0.25)\u000a      (net 8 "/v3s/buck converter V3s/1V2") (pintype "passive") (tstamp 35703070-4945-4ae8-9251-459594fef6b3))\u000a    (pad "2" smd roundrect (at 0.775 0 180) (size 0.9 0.95) (layers "F.Cu" "F.Paste" "F.Mask") (roundrect_rratio 0.25)\u000a      (net 1 "GND") (pintype "passive") (tstamp 721c19cb-d6c4-46f4-9dbe-5f734329614c))\u000a    (model "${KICAD6_3DMODEL_DIR}/Capacitor_SMD.3dshapes/C_0603_1608Metric.wrl"\u000a      (offset (xyz 0 0 0))\u000a      (scale (xyz 1 1 1))\u000a      (rotate (xyz 0 0 0))\u000a    )\u000a  )\u000a\u000a  (footprint "TestPoint:TestPoint_Pad_D1.0mm" (layer "F.Cu")\u000a    (tedit 5A0F774F) (tstamp 1627d0d3-2040-4362-a5cf-c852d92d7e74)\u000a    (at 193.75 76.25 90)\u000a    (descr "SMD pad as test Point, diameter 1.0mm")\u000a    (tags "test point SMD pad")\u000a    (property "Sheetfile" "buck_converter_V3s.kicad_sch")\u000a    (property "Sheetname" "buck converter V3s")\u000a    (path "/042db8da-cff7-4ac8-89a4-1790464868eb/82d91010-9c5f-4fff-a514-ef7c0ddecdff/6f0afa3d-7348-40dc-9761-0f2e2d8a4438")\u000a    (attr exclude_from_pos_files)\u000a    (fp_text reference "TP3002" (at 0 -1.448 90 unlocked) (layer "F.SilkS") hide\u000a      (effects (font (size 0.6 0.6) (thickness 0.09)))\u000a      (tstamp a952c211-0514-48ce-9994-f12e05aa7751)\u000a    )\u000a    (fp_text value "1v2" (at 0 1.2 90 unlocked) (layer "F.SilkS")\u000a      (effects (font (size 0.6 0.6) (thickness 0.09)))\u000a      (tstamp 92e1f6ff-4f7e-440d-b2c3-f0975de43474)\u000a    )\u000a    (fp_circle (center 0 0) (end 0 0.7) (layer "F.SilkS") (width 0.12) (fill none) (tstamp 702378f7-72f5-4198-a317-cb01e508a11b))\u000a    (fp_circle (center 0 0) (end 1 0) (layer "F.CrtYd") (width 0.05) (fill none) (tstamp a59a5dba-c096-49c0-93ef-9905f30865b2))\u000a    (pad "1" smd circle (at 0 0 90) (size 1 1) (layers "F.Cu" "F.Mask")\u000a      (net 8 "/v3s/buck converter V3s/1V2") (pinfunction "1") (pintype "passive") (tstamp 4b0bb029-bc65-4858-b3bb-295f1f8b9548))\u000a  )\u000a\u000a  (footprint "Capacitor_SMD:C_0603_1608Metric" (layer "F.Cu")\u000a    (tedit 5F68FEEE) (tstamp 2498e011-8495-42cd-ba99-d9fe46bdc2fa)\u000a    (at 178.3788 79.0556)\u000a    (descr "Capacitor SMD 0603 (1608 Metric), square (rectangular) end terminal, IPC_7351 nominal, (Body size source: IPC-SM-782 page 76, https://www.pcb-3d.com/wordpress/wp-content/uploads/ipc-sm-782a_amendment_1_and_2.pdf), generated with kicad-footprint-generator")\u000a    (tags "capacitor")\u000a    (property "Sheetfile" "buck_converter_V3s.kicad_sch")\u000a    (property "Sheetname" "buck converter V3s")\u000a    (path "/042db8da-cff7-4ac8-89a4-1790464868eb/82d91010-9c5f-4fff-a514-ef7c0ddecdff/8b03b36c-3537-4102-b90e-941d0c67823c")\u000a    (attr smd)\u000a    (fp_text reference "C3002" (at 0 1.25 unlocked) (layer "F.SilkS")\u000a      (effects (font (size 0.6 0.6) (thickness 0.09)))\u000a      (tstamp e8b837e3-6e92-4aaa-aea5-4e43fef384aa)\u000a    )\u000a    (fp_text value "10uf" (at 0 1.43 unlocked) (layer "F.Fab") hide\u000a      (effects (font (size 1 1) (thickness 0.15)))\u000a      (tstamp e42c6b40-24eb-4bbe-9102-a64db5b16a65)\u000a    )\u000a    (fp_text user "${REFERENCE}" (at 0 0 unlocked) (layer "F.Fab") hide\u000a      (effects (font (size 1 1) (thickness 0.15)))\u000a      (tstamp 031ec0b8-f482-4262-b8aa-5c82dd0f508d)\u000a    )\u000a    (fp_line (start -0.14058 0.51) (end 0.14058 0.51) (layer "F.SilkS") (width 0.12) (tstamp 0cb037ec-8580-473a-88fd-1273767a279f))\u000a    (fp_line (start -0.14058 -0.51) (end 0.14058 -0.51) (layer "F.SilkS") (width 0.12) (tstamp 9708fcc8-fb00-4713-9416-f9de7e055700))\u000a    (fp_line (start -1.48 -0.73) (end 1.48 -0.73) (layer "F.CrtYd") (width 0.05) (tstamp 3fecc94f-20d4-4e48-bbe4-3f083d458180))\u000a    (fp_line (start 1.48 0.73) (end -1.48 0.73) (layer "F.CrtYd") (width 0.05) (tstamp 48a74d3b-7b0c-4524-9a1f-bb61c541837f))\u000a    (fp_line (start 1.48 -0.73) (end 1.48 0.73) (layer "F.CrtYd") (width 0.05) (tstamp 68c17cfd-8779-4c45-985f-be378a3c1c3e))\u000a    (fp_line (start -1.48 0.73) (end -1.48 -0.73) (layer "F.CrtYd") (width 0.05) (tstamp 79e7c02a-4bbb-4b49-9ad5-ac0023ec02f7))\u000a    (fp_line (start -0.8 0.4) (end -0.8 -0.4) (layer "F.Fab") (width 0.1) (tstamp 2c308f67-2ccf-4a57-a889-56b7f6009f29))\u000a    (fp_line (start 0.8 -0.4) (end 0.8 0.4) (layer "F.Fab") (width 0.1) (tstamp 5fe0d001-9e00-4e5a-bee0-59f53aed31cc))\u000a    (fp_line (start 0.8 0.4) (end -0.8 0.4) (layer "F.Fab") (width 0.1) (tstamp 7d0c0db2-69d2-46a1-9ce8-93aec02d8aa7))\u000a    (fp_line (start -0.8 -0.4) (end 0.8 -0.4) (layer "F.Fab") (width 0.1) (tstamp e844e543-dc7c-4487-9cf9-3765e7412010))\u000a    (pad "1" smd roundrect (at -0.775 0) (size 0.9 0.95) (layers "F.Cu" "F.Paste" "F.Mask") (roundrect_rratio 0.25)\u000a      (net 9 "/v3s/buck converter V3s/1V8") (pintype "passive") (tstamp f8b484ca-453e-4fa9-a5f7-bfd003c3b832))\u000a    (pad "2" smd roundrect (at 0.775 0) (size 0.9 0.95) (layers "F.Cu" "F.Paste" "F.Mask") (roundrect_rratio 0.25)\u000a      (net 1 "GND") (pintype "passive") (tstamp b5210775-9346-458a-a5a1-d9a8a804f19a))\u000a    (model "${KICAD6_3DMODEL_DIR}/Capacitor_SMD.3dshapes/C_0603_1608Metric.wrl"\u000a      (offset (xyz 0 0 0))\u000a      (scale (xyz 1 1 1))\u000a      (rotate (xyz 0 0 0))\u000a    )\u000a  )\u000a\u000a  (footprint "Resistor_SMD:R_0603_1608Metric" (layer "F.Cu")\u000a    (tedit 5F68FEEE) (tstamp 2b047367-f7e9-448f-bcc8-ac4c3bd259ae)\u000a    (at 178.6498 69.3454 90)\u000a    (descr "Resistor SMD 0603 (1608 Metric), square (rectangular) end terminal, IPC_7351 nominal, (Body size source: IPC-SM-782 page 72, https://www.pcb-3d.com/wordpress/wp-content/uploads/ipc-sm-782a_amendment_1_and_2.pdf), generated with kicad-footprint-generator")\u000a    (tags "resistor")\u000a    (property "Sheetfile" "buck_converter_V3s.kicad_sch")\u000a    (property "Sheetname" "buck converter V3s")\u000a    (path "/042db8da-cff7-4ac8-89a4-1790464868eb/82d91010-9c5f-4fff-a514-ef7c0ddecdff/2729e202-9950-47bc-b026-03fc43f2ccce")\u000a    (attr smd)\u000a    (fp_text reference "R3006" (at 0 -1.25 90 unlocked) (layer "F.SilkS")\u000a      (effects (font (size 0.6 0.6) (thickness 0.09)))\u000a      (tstamp 8e20ad2e-1904-491d-85f3-d9a5fb53866e)\u000a    )\u000a    (fp_text value "680K(Ra)" (at 0 1.43 90 unlocked) (layer "F.Fab") hide\u000a      (effects (font (size 1 1) (thickness 0.15)))\u000a      (tstamp 5df274ca-2b8a-4d6f-8d2e-02053a83b8d8)\u000a    )\u000a    (fp_text user "${REFERENCE}" (at 0 0 90 unlocked) (layer "F.Fab") hide\u000a      (effects (font (size 1 1) (thickness 0.15)))\u000a      (tstamp ff9d3da9-d31c-4d38-a96c-65056a40a784)\u000a    )\u000a    (fp_line (start -0.237258 0.5225) (end 0.237258 0.5225) (layer "F.SilkS") (width 0.12) (tstamp 25c8afc9-767b-4927-b9a8-474c8dc1a609))\u000a    (fp_line (start -0.237258 -0.5225) (end 0.237258 -0.5225) (layer "F.SilkS") (width 0.12) (tstamp 59789c5d-70ca-4226-be0c-d7c331e1e32e))\u000a    (fp_line (start -1.48 0.73) (end -1.48 -0.73) (layer "F.CrtYd") (width 0.05) (tstamp 08126d07-90e9-4e7e-9b28-e79335da8ce1))\u000a    (fp_line (start 1.48 -0.73) (end 1.48 0.73) (layer "F.CrtYd") (width 0.05) (tstamp 4e5d3426-8a88-42ba-a567-3990118b0c2d))\u000a    (fp_line (start -1.48 -0.73) (end 1.48 -0.73) (layer "F.CrtYd") (width 0.05) (tstamp 5900c3b0-5e4d-43fb-b995-b89434854f67))\u000a    (fp_line (start 1.48 0.73) (end -1.48 0.73) (layer "F.CrtYd") (width 0.05) (tstamp 91e7559c-15a2-44d8-8527-8f3757967296))\u000a    (fp_line (start 0.8 0.4125) (end -0.8 0.4125) (layer "F.Fab") (width 0.1) (tstamp 1ea02abe-18e4-4bb7-ac45-89e90f8fb422))\u000a    (fp_line (start -0.8 0.4125) (end -0.8 -0.4125) (layer "F.Fab") (width 0.1) (tstamp 38dceb71-b498-44a7-bb31-aec432558e63))\u000a    (fp_line (start 0.8 -0.4125) (end 0.8 0.4125) (layer "F.Fab") (width 0.1) (tstamp 7a27f6f3-3344-4e16-9913-3a0b757c858b))\u000a    (fp_line (start -0.8 -0.4125) (end 0.8 -0.4125) (layer "F.Fab") (width 0.1) (tstamp b5f14223-16af-4c16-86da-9f381739b292))\u000a    (pad "1" smd roundrect (at -0.825 0 90) (size 0.8 0.95) (layers "F.Cu" "F.Paste" "F.Mask") (roundrect_rratio 0.25)\u000a      (net 10 "/v3s/buck converter V3s/3v3") (pintype "passive") (tstamp 7b955da8-ae3d-4ce4-bda6-cde7e00cf5d9))\u000a    (pad "2" smd roundrect (at 0.825 0 90) (size 0.8 0.95) (layers "F.Cu" "F.Paste" "F.Mask") (roundrect_rratio 0.25)\u000a      (net 4 "Net-(C3006-Pad2)") (pintype "passive") (tstamp adff4fb4-e4bb-4ae7-b95f-07b0dccc4bed))\u000a    (model "${KICAD6_3DMODEL_DIR}/Resistor_SMD.3dshapes/R_0603_1608Metric.wrl"\u000a      (offset (xyz 0 0 0))\u000a      (scale (xyz 1 1 1))\u000a      (rotate (xyz 0 0 0))\u000a    )\u000a  )\u000a\u000a  (footprint "Resistor_SMD:R_0603_1608Metric" (layer "F.Cu")\u000a    (tedit 5F68FEEE) (tstamp 3110f23f-72ac-4f37-b2fc-247069cefd84)\u000a    (at 174.8788 76.4806 90)\u000a    (descr "Resistor SMD 0603 (1608 Metric), square (rectangular) end terminal, IPC_7351 nominal, (Body size source: IPC-SM-782 page 72, https://www.pcb-3d.com/wordpress/wp-content/uploads/ipc-sm-782a_amendment_1_and_2.pdf), generated with kicad-footprint-generator")\u000a    (tags "resistor")\u000a    (property "Sheetfile" "buck_converter_V3s.kicad_sch")\u000a    (property "Sheetname" "buck converter V3s")\u000a    (path "/042db8da-cff7-4ac8-89a4-1790464868eb/82d91010-9c5f-4fff-a514-ef7c0ddecdff/6f02852e-c969-4522-8c14-6e0e6db77c4f")\u000a    (attr smd)\u000a    (fp_text reference "R3005" (at 0 -1.25 90 unlocked) (layer "F.SilkS")\u000a      (effects (font (size 0.6 0.6) (thickness 0.09)))\u000a      (tstamp 2885876a-d5ad-43f3-a7fe-2e48232c01c8)\u000a    )\u000a    (fp_text value "200K(Ra)" (at 0 1.43 90 unlocked) (layer "F.Fab") hide\u000a      (effects (font (size 1 1) (thickness 0.15)))\u000a      (tstamp 647a4ae8-5ed4-4747-a577-200dd92885ca)\u000a    )\u000a    (fp_text user "${REFERENCE}" (at 0 0 90 unlocked) (layer "F.Fab") hide\u000a      (effects (font (size 1 1) (thickness 0.15)))\u000a      (tstamp e5b6fd80-e251-4c91-84d5-312d375b76f6)\u000a    )\u000a    (fp_line (start -0.237258 0.5225) (end 0.237258 0.5225) (layer "F.SilkS") (width 0.12) (tstamp a2aa611a-2390-4691-aa42-973c26359c72))\u000a    (fp_line (start -0.237258 -0.5225) (end 0.237258 -0.5225) (layer "F.SilkS") (width 0.12) (tstamp e77a54ba-074c-4cb3-b701-dfe567970f74))\u000a    (fp_line (start -1.48 0.73) (end -1.48 -0.73) (layer "F.CrtYd") (width 0.05) (tstamp 7f19f4f1-4f8c-4d49-a63e-f91de38b8708))\u000a    (fp_line (start -1.48 -0.73) (end 1.48 -0.73) (layer "F.CrtYd") (width 0.05) (tstamp 845d7e8e-d23e-4b99-a0d3-6099f39bb896))\u000a    (fp_line (start 1.48 -0.73) (end 1.48 0.73) (layer "F.CrtYd") (width 0.05) (tstamp d1643a5c-80cb-4788-ab1a-b6f7fabac67d))\u000a    (fp_line (start 1.48 0.73) (end -1.48 0.73) (layer "F.CrtYd") (width 0.05) (tstamp f3504c68-0772-4625-8e85-365fc267247a))\u000a    (fp_line (start -0.8 0.4125) (end -0.8 -0.4125) (layer "F.Fab") (width 0.1) (tstamp 1e7b81fd-e8f7-4e06-8462-f43b13230c7c))\u000a    (fp_line (start 0.8 -0.4125) (end 0.8 0.4125) (layer "F.Fab") (width 0.1) (tstamp 32aed56f-a3b3-44cc-876d-d3e345487f5c))\u000a    (fp_line (start 0.8 0.4125) (end -0.8 0.4125) (layer "F.Fab") (width 0.1) (tstamp 374d6636-5976-417f-a46f-2f8307c8fdb8))\u000a    (fp_line (start -0.8 -0.4125) (end 0.8 -0.4125) (layer "F.Fab") (width 0.1) (tstamp f6d5caf5-e69a-4e03-9531-90ea65521fb6))\u000a    (pad "1" smd roundrect (at -0.825 0 90) (size 0.8 0.95) (layers "F.Cu" "F.Paste" "F.Mask") (roundrect_rratio 0.25)\u000a      (net 9 "/v3s/buck converter V3s/1V8") (pintype "passive") (tstamp d78826be-3423-424c-a976-f3dbe5e3b5a6))\u000a    (pad "2" smd roundrect (at 0.825 0 90) (size 0.8 0.95) (layers "F.Cu" "F.Paste" "F.Mask") (roundrect_rratio 0.25)\u000a      (net 3 "Net-(C3005-Pad2)") (pintype "passive") (tstamp 245ad28b-b2d3-4177-8959-90a3911745d6))\u000a    (model "${KICAD6_3DMODEL_DIR}/Resistor_SMD.3dshapes/R_0603_1608Metric.wrl"\u000a      (offset (xyz 0 0 0))\u000a      (scale (xyz 1 1 1))\u000a      (rotate (xyz 0 0 0))\u000a    )\u000a  )\u000a\u000a  (footprint "Capacitor_SMD:C_0603_1608Metric" (layer "F.Cu")\u000a    (tedit 5F68FEEE) (tstamp 3eb1ebd1-ac6b-4254-bbd2-e932be6cf634)\u000a    (at 169.1 74.575 90)\u000a    (descr "Capacitor SMD 0603 (1608 Metric), square (rectangular) end terminal, IPC_7351 nominal, (Body size source: IPC-SM-782 page 76, https://www.pcb-3d.com/wordpress/wp-content/uploads/ipc-sm-782a_amendment_1_and_2.pdf), generated with kicad-footprint-generator")\u000a    (tags "capacitor")\u000a    (property "Sheetfile" "buck_converter_V3s.kicad_sch")\u000a    (property "Sheetname" "buck converter V3s")\u000a    (path "/042db8da-cff7-4ac8-89a4-1790464868eb/82d91010-9c5f-4fff-a514-ef7c0ddecdff/5416651f-3c02-4c72-9f89-8b9525eb087a")\u000a    (attr smd)\u000a    (fp_text reference "C3007" (at 0 -1.25 90 unlocked) (layer "F.SilkS")\u000a      (effects (font (size 0.6 0.6) (thickness 0.09)))\u000a      (tstamp 9e982e00-3b95-4907-8b6e-ca48279194f9)\u000a    )\u000a    (fp_text value "1uf" (at 0 1.43 90 unlocked) (layer "F.Fab") hide\u000a      (effects (font (size 1 1) (thickness 0.15)))\u000a      (tstamp 65d4672b-dfc6-4b13-8501-8c5770f46901)\u000a    )\u000a    (fp_text user "${REFERENCE}" (at 0 0 90 unlocked) (layer "F.Fab") hide\u000a      (effects (font (size 1 1) (thickness 0.15)))\u000a      (tstamp 3f3057ee-ed84-49a3-801f-8bd7bf2af363)\u000a    )\u000a    (fp_line (start -0.14058 -0.51) (end 0.14058 -0.51) (layer "F.SilkS") (width 0.12) (tstamp 46a29004-e58d-4119-b85f-6430dfd4350b))\u000a    (fp_line (start -0.14058 0.51) (end 0.14058 0.51) (layer "F.SilkS") (width 0.12) (tstamp d042a76b-08f3-4d72-96f1-b2057a793280))\u000a    (fp_line (start 1.48 0.73) (end -1.48 0.73) (layer "F.CrtYd") (width 0.05) (tstamp 1d07bdf3-f8ec-485f-a88e-c2a14b891f62))\u000a    (fp_line (start -1.48 -0.73) (end 1.48 -0.73) (layer "F.CrtYd") (width 0.05) (tstamp 3eb3eb89-fa65-4013-b1bf-d65ec41b082e))\u000a    (fp_line (start 1.48 -0.73) (end 1.48 0.73) (layer "F.CrtYd") (width 0.05) (tstamp 6cff15ea-4041-42b1-b3eb-bfb4925c9d5d))\u000a    (fp_line (start -1.48 0.73) (end -1.48 -0.73) (layer "F.CrtYd") (width 0.05) (tstamp f1b978a0-80f3-4b1d-9f86-981cbab51068))\u000a    (fp_line (start 0.8 -0.4) (end 0.8 0.4) (layer "F.Fab") (width 0.1) (tstamp 40d6c804-7f13-48cd-b63f-3f345cd025a2))\u000a    (fp_line (start -0.8 0.4) (end -0.8 -0.4) (layer "F.Fab") (width 0.1) (tstamp 76999e11-689b-4164-b446-1d28c8f4434e))\u000a    (fp_line (start 0.8 0.4) (end -0.8 0.4) (layer "F.Fab") (width 0.1) (tstamp c3f5a493-81a4-4174-a0d0-e6a27aabecd4))\u000a    (fp_line (start -0.8 -0.4) (end 0.8 -0.4) (layer "F.Fab") (width 0.1) (tstamp c49171a0-c2ec-4093-9905-4a5e55fd9a06))\u000a    (pad "1" smd roundrect (at -0.775 0 90) (size 0.9 0.95) (layers "F.Cu" "F.Paste" "F.Mask") (roundrect_rratio 0.25)\u000a      (net 11 "/v3s/buck converter V3s/3V0") (pintype "passive") (tstamp d8fb4011-1d64-4c1e-acbd-03e0e3995317))\u000a    (pad "2" smd roundrect (at 0.775 0 90) (size 0.9 0.95) (layers "F.Cu" "F.Paste" "F.Mask") (roundrect_rratio 0.25)\u000a      (net 1 "GND") (pintype "passive") (tstamp 4d1ce688-d92f-434d-aec5-04a49299b8fe))\u000a    (model "${KICAD6_3DMODEL_DIR}/Capacitor_SMD.3dshapes/C_0603_1608Metric.wrl"\u000a      (offset (xyz 0 0 0))\u000a      (scale (xyz 1 1 1))\u000a      (rotate (xyz 0 0 0))\u000a    )\u000a  )\u000a\u000a  (footprint "Capacitor_SMD:C_0603_1608Metric" (layer "F.Cu")\u000a    (tedit 5F68FEEE) (tstamp 4b3c0415-fded-452f-8b1c-743dffd947b2)\u000a    (at 191.8584 75.7522 90)\u000a    (descr "Capacitor SMD 0603 (1608 Metric), square (rectangular) end terminal, IPC_7351 nominal, (Body size source: IPC-SM-782 page 76, https://www.pcb-3d.com/wordpress/wp-content/uploads/ipc-sm-782a_amendment_1_and_2.pdf), generated with kicad-footprint-generator")\u000a    (tags "capacitor")\u000a    (property "Sheetfile" "buck_converter_V3s.kicad_sch")\u000a    (property "Sheetname" "buck converter V3s")\u000a    (path "/042db8da-cff7-4ac8-89a4-1790464868eb/82d91010-9c5f-4fff-a514-ef7c0ddecdff/9c70b219-dc65-4773-89d2-3b96dc451909")\u000a    (attr smd)\u000a    (fp_text reference "C3004" (at 0 -1.25 90 unlocked) (layer "F.SilkS")\u000a      (effects (font (size 0.6 0.6) (thickness 0.09)))\u000a      (tstamp a62d51c4-f2c7-4bf7-9a53-8a1d760b3f26)\u000a    )\u000a    (fp_text value "18p" (at 0 1.43 90 unlocked) (layer "F.Fab") hide\u000a      (effects (font (size 1 1) (thickness 0.15)))\u000a      (tstamp e0a0ac90-c621-43d0-9318-55a99064ccee)\u000a    )\u000a    (fp_text user "${REFERENCE}" (at 0 0 90 unlocked) (layer "F.Fab") hide\u000a      (effects (font (size 1 1) (thickness 0.15)))\u000a      (tstamp 5f1a12fe-864c-4957-bc6a-8fa53f4cfc2b)\u000a    )\u000a    (fp_line (start -0.14058 -0.51) (end 0.14058 -0.51) (layer "F.SilkS") (width 0.12) (tstamp 3d160573-db43-4cb5-aafa-ab8cb127b27e))\u000a    (fp_line (start -0.14058 0.51) (end 0.14058 0.51) (layer "F.SilkS") (width 0.12) (tstamp 5e4ff619-c590-4456-a8e6-19d3205c0ed9))\u000a    (fp_line (start -1.48 0.73) (end -1.48 -0.73) (layer "F.CrtYd") (width 0.05) (tstamp 004d93c4-fcf9-4ae6-8d71-d2a1b55be927))\u000a    (fp_line (start -1.48 -0.73) (end 1.48 -0.73) (layer "F.CrtYd") (width 0.05) (tstamp ca2bb3b6-8ca7-494d-acbf-1391d688dfea))\u000a    (fp_line (start 1.48 0.73) (end -1.48 0.73) (layer "F.CrtYd") (width 0.05) (tstamp cc5009a4-96cf-4522-970a-3571641cce27))\u000a    (fp_line (start 1.48 -0.73) (end 1.48 0.73) (layer "F.CrtYd") (width 0.05) (tstamp d0666ba4-220c-4818-9dd5-74590edb018b))\u000a    (fp_line (start -0.8 -0.4) (end 0.8 -0.4) (layer "F.Fab") (width 0.1) (tstamp 011d806f-b551-4340-84f5-e8733769a131))\u000a    (fp_line (start 0.8 -0.4) (end 0.8 0.4) (layer "F.Fab") (width 0.1) (tstamp a453f1d2-bd64-4592-a621-b7f41961f7e4))\u000a    (fp_line (start 0.8 0.4) (end -0.8 0.4) (layer "F.Fab") (width 0.1) (tstamp c4694322-92dd-43aa-aa2d-2e62e74c779d))\u000a    (fp_line (start -0.8 0.4) (end -0.8 -0.4) (layer "F.Fab") (width 0.1) (tstamp d0b5a9ab-0702-44a8-920e-0dbba076cc0e))\u000a    (pad "1" smd roundrect (at -0.775 0 90) (size 0.9 0.95) (layers "F.Cu" "F.Paste" "F.Mask") (roundrect_rratio 0.25)\u000a      (net 8 "/v3s/buck converter V3s/1V2") (pintype "passive") (tstamp 71cd71dd-7481-4a46-8e19-0b968ae65003))\u000a    (pad "2" smd roundrect (at 0.775 0 90) (size 0.9 0.95) (layers "F.Cu" "F.Paste" "F.Mask") (roundrect_rratio 0.25)\u000a      (net 2 "Net-(C3004-Pad2)") (pintype "passive") (tstamp 3adf67e5-45c0-47be-b305-418aea34daa8))\u000a    (model "${KICAD6_3DMODEL_DIR}/Capacitor_SMD.3dshapes/C_0603_1608Metric.wrl"\u000a      (offset (xyz 0 0 0))\u000a      (scale (xyz 1 1 1))\u000a      (rotate (xyz 0 0 0))\u000a    )\u000a  )\u000a\u000a  (footprint "TestPoint:TestPoint_Pad_D1.0mm" (layer "F.Cu")\u000a    (tedit 5A0F774F) (tstamp 57a0f182-2f38-461c-9e11-59c77a3b7e9e)\u000a    (at 186.25 80.5 90)\u000a    (descr "SMD pad as test Point, diameter 1.0mm")\u000a    (tags "test point SMD pad")\u000a    (property "Sheetfile" "buck_converter_V3s.kicad_sch")\u000a    (property "Sheetname" "buck converter V3s")\u000a    (path "/042db8da-cff7-4ac8-89a4-1790464868eb/82d91010-9c5f-4fff-a514-ef7c0ddecdff/e0bbd44a-91b4-4322-b3f4-08a1052b4291")\u000a    (attr exclude_from_pos_files)\u000a    (fp_text reference "TP3005" (at 0 -1.448 90 unlocked) (layer "F.SilkS") hide\u000a      (effects (font (size 0.6 0.6) (thickness 0.09)))\u000a      (tstamp 8445dcbc-3b86-47cd-a455-2a1f479f9521)\u000a    )\u000a    (fp_text value "5v" (at 0 1.25 90 unlocked) (layer "F.SilkS")\u000a      (effects (font (size 0.6 0.6) (thickness 0.09)))\u000a      (tstamp 71c98f6b-c6bb-4501-8b6b-118a763ef6e9)\u000a    )\u000a    (fp_circle (center 0 0) (end 0 0.7) (layer "F.SilkS") (width 0.12) (fill none) (tstamp 06e630f7-48e4-4b25-b7ca-13baaeb67c72))\u000a    (fp_circle (center 0 0) (end 1 0) (layer "F.CrtYd") (width 0.05) (fill none) (tstamp 1c45e076-077f-4fa4-a625-c27393e9a11e))\u000a    (pad "1" smd circle (at 0 0 90) (size 1 1) (layers "F.Cu" "F.Mask")\u000a      (net 12 "/v3s/buck converter V3s/5V") (pinfunction "1") (pintype "passive") (tstamp 8d75a24f-46a1-4508-9f90-49590ccbde71))\u000a  )\u000a\u000a  (footprint "TestPoint:TestPoint_Pad_D1.0mm" (layer "F.Cu")\u000a    (tedit 5A0F774F) (tstamp 77b8814c-323b-4843-b521-83637e7a587a)\u000a    (at 172 77.5)\u000a    (descr "SMD pad as test Point, diameter 1.0mm")\u000a    (tags "test point SMD pad")\u000a    (property "Sheetfile" "buck_converter_V3s.kicad_sch")\u000a    (property "Sheetname" "buck converter V3s")\u000a    (path "/042db8da-cff7-4ac8-89a4-1790464868eb/82d91010-9c5f-4fff-a514-ef7c0ddecdff/15915a61-9f36-4370-9799-b1c9cfb4fc78")\u000a    (attr exclude_from_pos_files)\u000a    (fp_text reference "TP3001" (at 0 -1.448 unlocked) (layer "F.SilkS") hide\u000a      (effects (font (size 0.6 0.6) (thickness 0.09)))\u000a      (tstamp 88cd3ef3-d65e-4d76-982f-79f37fec8260)\u000a    )\u000a    (fp_text value "1v8" (at 0 1.25 unlocked) (layer "F.SilkS")\u000a      (effects (font (size 0.6 0.6) (thickness 0.09)))\u000a      (tstamp a1c6b46e-fb83-4976-8a5d-4ae5a7cd2658)\u000a    )\u000a    (fp_circle (center 0 0) (end 0 0.7) (layer "F.SilkS") (width 0.12) (fill none) (tstamp 8eddd882-08e0-4621-b1d5-8becbd09ee3f))\u000a    (fp_circle (center 0 0) (end 1 0) (layer "F.CrtYd") (width 0.05) (fill none) (tstamp 4dd17e28-b1d5-485f-b451-e16f9199605c))\u000a    (pad "1" smd circle (at 0 0) (size 1 1) (layers "F.Cu" "F.Mask")\u000a      (net 9 "/v3s/buck converter V3s/1V8") (pinfunction "1") (pintype "passive") (tstamp 1acfbb44-1ac9-4be0-9f44-196423909b85))\u000a  )\u000a\u000a  (footprint "Capacitor_SMD:C_0603_1608Metric" (layer "F.Cu")\u000a    (tedit 5F68FEEE) (tstamp 98efd5f7-9b43-4b7d-a4d8-9bea788b313e)\u000a    (at 177.2538 76.5556 90)\u000a    (descr "Capacitor SMD 0603 (1608 Metric), square (rectangular) end terminal, IPC_7351 nominal, (Body size source: IPC-SM-782 page 76, https://www.pcb-3d.com/wordpress/wp-content/uploads/ipc-sm-782a_amendment_1_and_2.pdf), generated with kicad-footprint-generator")\u000a    (tags "capacitor")\u000a    (property "Sheetfile" "buck_converter_V3s.kicad_sch")\u000a    (property "Sheetname" "buck converter V3s")\u000a    (path "/042db8da-cff7-4ac8-89a4-1790464868eb/82d91010-9c5f-4fff-a514-ef7c0ddecdff/ef2eef35-1265-46a4-aeec-305ad75f5b5a")\u000a    (attr smd)\u000a    (fp_text reference "C3005" (at 0 -1.25 90 unlocked) (layer "F.SilkS")\u000a      (effects (font (size 0.6 0.6) (thickness 0.09)))\u000a      (tstamp 0cc4c873-1362-4e1e-8a0e-5594d50bb13a)\u000a    )\u000a    (fp_text value "18p" (at 0 1.43 90 unlocked) (layer "F.Fab") hide\u000a      (effects (font (size 1 1) (thickness 0.15)))\u000a      (tstamp f077a269-6a26-4885-8fe7-d34b09fab97c)\u000a    )\u000a    (fp_text user "${REFERENCE}" (at 0 0 90 unlocked) (layer "F.Fab") hide\u000a      (effects (font (size 1 1) (thickness 0.15)))\u000a      (tstamp ec6d39d5-a796-4f3a-aeda-0c1d93c29be2)\u000a    )\u000a    (fp_line (start -0.14058 0.51) (end 0.14058 0.51) (layer "F.SilkS") (width 0.12) (tstamp 06a63b1e-9863-45fa-a7bc-ce256d1e4d97))\u000a    (fp_line (start -0.14058 -0.51) (end 0.14058 -0.51) (layer "F.SilkS") (width 0.12) (tstamp b1dc64b2-fe65-4ace-afab-857598ff55cc))\u000a    (fp_line (start -1.48 -0.73) (end 1.48 -0.73) (layer "F.CrtYd") (width 0.05) (tstamp 71456fc2-d089-45c7-960d-37333f601b8a))\u000a    (fp_line (start 1.48 0.73) (end -1.48 0.73) (layer "F.CrtYd") (width 0.05) (tstamp 7815079a-2974-4818-bfb5-ca099e64a531))\u000a    (fp_line (start 1.48 -0.73) (end 1.48 0.73) (layer "F.CrtYd") (width 0.05) (tstamp 7c6db163-7fe1-494b-9cfb-dea8ec9a15f5))\u000a    (fp_line (start -1.48 0.73) (end -1.48 -0.73) (layer "F.CrtYd") (width 0.05) (tstamp 99b2cff6-7051-4960-8346-030176b2a08a))\u000a    (fp_line (start 0.8 -0.4) (end 0.8 0.4) (layer "F.Fab") (width 0.1) (tstamp 13dfca74-12df-4be9-b7dc-314ef44a66f0))\u000a    (fp_line (start -0.8 -0.4) (end 0.8 -0.4) (layer "F.Fab") (width 0.1) (tstamp 3ef45d98-6c00-470f-beb9-e7998701c8ca))\u000a    (fp_line (start -0.8 0.4) (end -0.8 -0.4) (layer "F.Fab") (width 0.1) (tstamp 4b2289f7-6db9-4057-8f36-fad6c18ca7fd))\u000a    (fp_line (start 0.8 0.4) (end -0.8 0.4) (layer "F.Fab") (width 0.1) (tstamp c1e17a78-8b42-4c1a-832b-86b7c963de39))\u000a    (pad "1" smd roundrect (at -0.775 0 90) (size 0.9 0.95) (layers "F.Cu" "F.Paste" "F.Mask") (roundrect_rratio 0.25)\u000a      (net 9 "/v3s/buck converter V3s/1V8") (pintype "passive") (tstamp c9713db0-f9f1-468f-b690-3b4c9296f1d3))\u000a    (pad "2" smd roundrect (at 0.775 0 90) (size 0.9 0.95) (layers "F.Cu" "F.Paste" "F.Mask") (roundrect_rratio 0.25)\u000a      (net 3 "Net-(C3005-Pad2)") (pintype "passive") (tstamp e0f36016-164c-42fe-b9be-b5060281a9af))\u000a    (model "${KICAD6_3DMODEL_DIR}/Capacitor_SMD.3dshapes/C_0603_1608Metric.wrl"\u000a      (offset (xyz 0 0 0))\u000a      (scale (xyz 1 1 1))\u000a      (rotate (xyz 0 0 0))\u000a    )\u000a  )\u000a\u000a  (footprint "Capacitor_SMD:C_0603_1608Metric" (layer "F.Cu")\u000a    (tedit 5F68FEEE) (tstamp 9c84631f-64b6-46da-8e06-5e2798fd3672)\u000a    (at 176.1498 69.3704 90)\u000a    (descr "Capacitor SMD 0603 (1608 Metric), square (rectangular) end terminal, IPC_7351 nominal, (Body size source: IPC-SM-782 page 76, https://www.pcb-3d.com/wordpress/wp-content/uploads/ipc-sm-782a_amendment_1_and_2.pdf), generated with kicad-footprint-generator")\u000a    (tags "capacitor")\u000a    (property "Sheetfile" "buck_converter_V3s.kicad_sch")\u000a    (property "Sheetname" "buck converter V3s")\u000a    (path "/042db8da-cff7-4ac8-89a4-1790464868eb/82d91010-9c5f-4fff-a514-ef7c0ddecdff/a786da47-e842-441b-a4a0-5647ca524c0f")\u000a    (attr smd)\u000a    (fp_text reference "C3006" (at 0.025 -1.25 90 unlocked) (layer "F.SilkS")\u000a      (effects (font (size 0.6 0.6) (thickness 0.09)))\u000a      (tstamp 585ad42e-9cb4-4061-8acb-34492ec2e3b4)\u000a    )\u000a    (fp_text value "18p" (at 0 1.43 90 unlocked) (layer "F.Fab") hide\u000a      (effects (font (size 1 1) (thickness 0.15)))\u000a      (tstamp 3c93e22b-a722-406f-b19f-ba204b4b1948)\u000a    )\u000a    (fp_text user "${REFERENCE}" (at 0 0 90 unlocked) (layer "F.Fab") hide\u000a      (effects (font (size 1 1) (thickness 0.15)))\u000a      (tstamp d7454bd4-3994-4636-9517-1352e713838e)\u000a    )\u000a    (fp_line (start -0.14058 0.51) (end 0.14058 0.51) (layer "F.SilkS") (width 0.12) (tstamp 4f557380-209f-4fbb-81a9-07d17fb0595b))\u000a    (fp_line (start -0.14058 -0.51) (end 0.14058 -0.51) (layer "F.SilkS") (width 0.12) (tstamp fad86bef-2b55-4457-a508-3f3d368a9f24))\u000a    (fp_line (start -1.48 -0.73) (end 1.48 -0.73) (layer "F.CrtYd") (width 0.05) (tstamp 450174b5-1ba0-41ba-bbaf-baae0bc1ae77))\u000a    (fp_line (start 1.48 -0.73) (end 1.48 0.73) (layer "F.CrtYd") (width 0.05) (tstamp a47340d8-0d16-49a6-9f3a-e2d5ebdf3832))\u000a    (fp_line (start 1.48 0.73) (end -1.48 0.73) (layer "F.CrtYd") (width 0.05) (tstamp e6accb4a-2b9d-4c87-aa6d-4c50c5ed5005))\u000a    (fp_line (start -1.48 0.73) (end -1.48 -0.73) (layer "F.CrtYd") (width 0.05) (tstamp e9cfe27a-fe0e-4e0e-ad72-b078459a8269))\u000a    (fp_line (start -0.8 0.4) (end -0.8 -0.4) (layer "F.Fab") (width 0.1) (tstamp 22f809e3-bd0f-4723-82e9-02fde165b699))\u000a    (fp_line (start 0.8 -0.4) (end 0.8 0.4) (layer "F.Fab") (width 0.1) (tstamp 54838824-b3a1-44b2-9fc5-62af1ca49317))\u000a    (fp_line (start 0.8 0.4) (end -0.8 0.4) (layer "F.Fab") (width 0.1) (tstamp 5e2fc4b7-f974-45ad-9deb-75a618454a5c))\u000a    (fp_line (start -0.8 -0.4) (end 0.8 -0.4) (layer "F.Fab") (width 0.1) (tstamp eea5a602-08fa-4b1b-9a95-29fb182ae31e))\u000a    (pad "1" smd roundrect (at -0.775 0 90) (size 0.9 0.95) (layers "F.Cu" "F.Paste" "F.Mask") (roundrect_rratio 0.25)\u000a      (net 10 "/v3s/buck converter V3s/3v3") (pintype "passive") (tstamp 304cb5af-dc18-45f4-b2e8-3ca633b55deb))\u000a    (pad "2" smd roundrect (at 0.775 0 90) (size 0.9 0.95) (layers "F.Cu" "F.Paste" "F.Mask") (roundrect_rratio 0.25)\u000a      (net 4 "Net-(C3006-Pad2)") (pintype "passive") (tstamp 83fedd39-2b1e-4551-ab6e-8258bb3e610b))\u000a    (model "${KICAD6_3DMODEL_DIR}/Capacitor_SMD.3dshapes/C_0603_1608Metric.wrl"\u000a      (offset (xyz 0 0 0))\u000a      (scale (xyz 1 1 1))\u000a      (rotate (xyz 0 0 0))\u000a    )\u000a  )\u000a\u000a  (footprint "Capacitor_SMD:C_0603_1608Metric" (layer "F.Cu")\u000a    (tedit 5F68FEEE) (tstamp a21c17cb-d52e-446f-a617-00b2c15368ca)\u000a    (at 182 80.5 -90)\u000a    (descr "Capacitor SMD 0603 (1608 Metric), square (rectangular) end terminal, IPC_7351 nominal, (Body size source: IPC-SM-782 page 76, https://www.pcb-3d.com/wordpress/wp-content/uploads/ipc-sm-782a_amendment_1_and_2.pdf), generated with kicad-footprint-generator")\u000a    (tags "capacitor")\u000a    (property "Sheetfile" "buck_converter_V3s.kicad_sch")\u000a    (property "Sheetname" "buck converter V3s")\u000a    (path "/042db8da-cff7-4ac8-89a4-1790464868eb/82d91010-9c5f-4fff-a514-ef7c0ddecdff/4f2a556d-8fc2-4b26-a4e2-29399fdc43f1")\u000a    (attr smd)\u000a    (fp_text reference "C3010" (at 0 1.25 90 unlocked) (layer "F.SilkS")\u000a      (effects (font (size 0.6 0.6) (thickness 0.09)))\u000a      (tstamp 96fac4b6-c268-4a17-88f3-f59e509fe764)\u000a    )\u000a    (fp_text value "10uf" (at 0 1.43 -90 unlocked) (layer "F.Fab") hide\u000a      (effects (font (size 1 1) (thickness 0.15)))\u000a      (tstamp 34fa3d69-164e-4525-9ef1-99cacf126430)\u000a    )\u000a    (fp_text user "${REFERENCE}" (at 0 0 -90 unlocked) (layer "F.Fab") hide\u000a      (effects (font (size 1 1) (thickness 0.15)))\u000a      (tstamp 62335cec-045e-425f-955c-fb88cb1d707b)\u000a    )\u000a    (fp_line (start -0.14058 -0.51) (end 0.14058 -0.51) (layer "F.SilkS") (width 0.12) (tstamp 3532dfc8-9405-4448-b63f-ed488421444c))\u000a    (fp_line (start -0.14058 0.51) (end 0.14058 0.51) (layer "F.SilkS") (width 0.12) (tstamp c25e9a39-6fe1-485b-ac61-86111b3471d5))\u000a    (fp_line (start 1.48 -0.73) (end 1.48 0.73) (layer "F.CrtYd") (width 0.05) (tstamp 500eb1d9-9db5-4abc-b478-17975423425f))\u000a    (fp_line (start -1.48 -0.73) (end 1.48 -0.73) (layer "F.CrtYd") (width 0.05) (tstamp 51b4745d-d961-4934-ae18-fbf876c36662))\u000a    (fp_line (start 1.48 0.73) (end -1.48 0.73) (layer "F.CrtYd") (width 0.05) (tstamp b4797614-7c46-4663-806c-e41c3ebe0b85))\u000a    (fp_line (start -1.48 0.73) (end -1.48 -0.73) (layer "F.CrtYd") (width 0.05) (tstamp f3b896af-1ec7-4d8b-83cf-fa8538ca21ec))\u000a    (fp_line (start -0.8 0.4) (end -0.8 -0.4) (layer "F.Fab") (width 0.1) (tstamp ab918c72-1863-4250-8a78-0164e91fd024))\u000a    (fp_line (start -0.8 -0.4) (end 0.8 -0.4) (layer "F.Fab") (width 0.1) (tstamp cb6af758-3309-40b7-b2c9-c315c173868c))\u000a    (fp_line (start 0.8 0.4) (end -0.8 0.4) (layer "F.Fab") (width 0.1) (tstamp eac353d2-d009-4c3d-8989-3e5543257ea1))\u000a    (fp_line (start 0.8 -0.4) (end 0.8 0.4) (layer "F.Fab") (width 0.1) (tstamp f637156a-67e0-424c-b34f-a56b9a6e5b44))\u000a    (pad "1" smd roundrect (at -0.775 0 270) (size 0.9 0.95) (layers "F.Cu" "F.Paste" "F.Mask") (roundrect_rratio 0.25)\u000a      (net 12 "/v3s/buck converter V3s/5V") (pintype "passive") (tstamp 71123606-e6f2-4ab3-8044-47bd66446c45))\u000a    (pad "2" smd roundrect (at 0.775 0 270) (size 0.9 0.95) (layers "F.Cu" "F.Paste" "F.Mask") (roundrect_rratio 0.25)\u000a      (net 1 "GND") (pintype "passive") (tstamp d23c9ed6-6165-4e02-a24c-1c2482d6387b))\u000a    (model "${KICAD6_3DMODEL_DIR}/Capacitor_SMD.3dshapes/C_0603_1608Metric.wrl"\u000a      (offset (xyz 0 0 0))\u000a      (scale (xyz 1 1 1))\u000a      (rotate (xyz 0 0 0))\u000a    )\u000a  )\u000a\u000a  (footprint "Resistor_SMD:R_0603_1608Metric" (layer "F.Cu")\u000a    (tedit 5F68FEEE) (tstamp a451113b-a601-42d2-8f58-3d8f5d57af13)\u000a    (at 173.6498 69.3454 -90)\u000a    (descr "Resistor SMD 0603 (1608 Metric), square (rectangular) end terminal, IPC_7351 nominal, (Body size source: IPC-SM-782 page 72, https://www.pcb-3d.com/wordpress/wp-content/uploads/ipc-sm-782a_amendment_1_and_2.pdf), generated with kicad-footprint-generator")\u000a    (tags "resistor")\u000a    (property "Sheetfile" "buck_converter_V3s.kicad_sch")\u000a    (property "Sheetname" "buck converter V3s")\u000a    (path "/042db8da-cff7-4ac8-89a4-1790464868eb/82d91010-9c5f-4fff-a514-ef7c0ddecdff/60ba0f8d-0aa5-4137-af02-bb83c91d0bb2")\u000a    (attr smd)\u000a    (fp_text reference "R3003" (at 0.1546 1.1498 90 unlocked) (layer "F.SilkS")\u000a      (effects (font (size 0.6 0.6) (thickness 0.09)))\u000a      (tstamp d0215837-8a47-4627-9525-94976f7b9f7f)\u000a    )\u000a    (fp_text value "150K(Rb)" (at 0 1.43 -90 unlocked) (layer "F.Fab") hide\u000a      (effects (font (size 1 1) (thickness 0.15)))\u000a      (tstamp 91237d26-8086-456f-8829-3cf32f31379d)\u000a    )\u000a    (fp_text user "${REFERENCE}" (at 0 0 -90 unlocked) (layer "F.Fab") hide\u000a      (effects (font (size 1 1) (thickness 0.15)))\u000a      (tstamp ca7de1a5-1866-4025-983b-9514f47811e5)\u000a    )\u000a    (fp_line (start -0.237258 0.5225) (end 0.237258 0.5225) (layer "F.SilkS") (width 0.12) (tstamp 273e754e-d3b7-43b8-ac5d-e58cf28944aa))\u000a    (fp_line (start -0.237258 -0.5225) (end 0.237258 -0.5225) (layer "F.SilkS") (width 0.12) (tstamp e386be6e-f677-4347-81b2-6b07115d0e65))\u000a    (fp_line (start 1.48 -0.73) (end 1.48 0.73) (layer "F.CrtYd") (width 0.05) (tstamp 37d909ea-3b20-4543-8044-dd9d3cf036ef))\u000a    (fp_line (start 1.48 0.73) (end -1.48 0.73) (layer "F.CrtYd") (width 0.05) (tstamp 5f9e16cf-1164-45be-abb0-51106f902b6c))\u000a    (fp_line (start -1.48 0.73) (end -1.48 -0.73) (layer "F.CrtYd") (width 0.05) (tstamp bb637a71-f77f-4f59-a22d-8725d9384638))\u000a    (fp_line (start -1.48 -0.73) (end 1.48 -0.73) (layer "F.CrtYd") (width 0.05) (tstamp ea9bda62-a00f-44e9-9ec7-f897d767d2b9))\u000a    (fp_line (start 0.8 -0.4125) (end 0.8 0.4125) (layer "F.Fab") (width 0.1) (tstamp 2a4c7b33-c645-44cd-bba1-d5b9c78deca6))\u000a    (fp_line (start 0.8 0.4125) (end -0.8 0.4125) (layer "F.Fab") (width 0.1) (tstamp 3ac60f3f-0073-4754-b6f2-411b71147f89))\u000a    (fp_line (start -0.8 0.4125) (end -0.8 -0.4125) (layer "F.Fab") (width 0.1) (tstamp f71cbb40-2555-4168-a765-8a79d898aa45))\u000a    (fp_line (start -0.8 -0.4125) (end 0.8 -0.4125) (layer "F.Fab") (width 0.1) (tstamp f81848bb-35b8-4d54-9b07-482ad50e0204))\u000a    (pad "1" smd roundrect (at -0.825 0 270) (size 0.8 0.95) (layers "F.Cu" "F.Paste" "F.Mask") (roundrect_rratio 0.25)\u000a      (net 4 "Net-(C3006-Pad2)") (pintype "passive") (tstamp eccc5cbd-1db3-4ea6-b690-2f393ee9e114))\u000a    (pad "2" smd roundrect (at 0.825 0 270) (size 0.8 0.95) (layers "F.Cu" "F.Paste" "F.Mask") (roundrect_rratio 0.25)\u000a      (net 1 "GND") (pintype "passive") (tstamp 1a4a7b27-6b59-4c92-b6e7-765fcd60caea))\u000a    (model "${KICAD6_3DMODEL_DIR}/Resistor_SMD.3dshapes/R_0603_1608Metric.wrl"\u000a      (offset (xyz 0 0 0))\u000a      (scale (xyz 1 1 1))\u000a      (rotate (xyz 0 0 0))\u000a    )\u000a  )\u000a\u000a  (footprint "Capacitor_SMD:C_0603_1608Metric" (layer "F.Cu")\u000a    (tedit 5F68FEEE) (tstamp ab33d0f4-d581-45c0-9019-be46aa2da4cb)\u000a    (at 174.6498 71.8454 180)\u000a    (descr "Capacitor SMD 0603 (1608 Metric), square (rectangular) end terminal, IPC_7351 nominal, (Body size source: IPC-SM-782 page 76, https://www.pcb-3d.com/wordpress/wp-content/uploads/ipc-sm-782a_amendment_1_and_2.pdf), generated with kicad-footprint-generator")\u000a    (tags "capacitor")\u000a    (property "Sheetfile" "buck_converter_V3s.kicad_sch")\u000a    (property "Sheetname" "buck converter V3s")\u000a    (path "/042db8da-cff7-4ac8-89a4-1790464868eb/82d91010-9c5f-4fff-a514-ef7c0ddecdff/64dc086a-0c95-41cc-a80e-52c85e1f3df1")\u000a    (attr smd)\u000a    (fp_text reference "C3003" (at 0 -1.25 unlocked) (layer "F.SilkS")\u000a      (effects (font (size 0.6 0.6) (thickness 0.09)))\u000a      (tstamp 735aa3eb-f894-4deb-ab56-b43e72408b30)\u000a    )\u000a    (fp_text value "10uf" (at 0 1.43 180 unlocked) (layer "F.Fab") hide\u000a      (effects (font (size 1 1) (thickness 0.15)))\u000a      (tstamp fb3a03b9-d2a3-4994-bc95-97145267c93f)\u000a    )\u000a    (fp_text user "${REFERENCE}" (at 0 0 180 unlocked) (layer "F.Fab") hide\u000a      (effects (font (size 1 1) (thickness 0.15)))\u000a      (tstamp 6b6e0048-73cc-4468-b871-66a2bde08a14)\u000a    )\u000a    (fp_line (start -0.14058 0.51) (end 0.14058 0.51) (layer "F.SilkS") (width 0.12) (tstamp c8890c88-226d-4418-aadd-01c3dd8838ea))\u000a    (fp_line (start -0.14058 -0.51) (end 0.14058 -0.51) (layer "F.SilkS") (width 0.12) (tstamp e59254ea-115d-4001-8db0-f8fc3c9aa0b2))\u000a    (fp_line (start -1.48 -0.73) (end 1.48 -0.73) (layer "F.CrtYd") (width 0.05) (tstamp 0a7a1d22-a08b-4eaf-ae9b-922fef88861a))\u000a    (fp_line (start -1.48 0.73) (end -1.48 -0.73) (layer "F.CrtYd") (width 0.05) (tstamp 48198291-952a-4dae-adea-56e4d78620ff))\u000a    (fp_line (start 1.48 -0.73) (end 1.48 0.73) (layer "F.CrtYd") (width 0.05) (tstamp 94615298-448e-4beb-a788-6c8f58c28f44))\u000a    (fp_line (start 1.48 0.73) (end -1.48 0.73) (layer "F.CrtYd") (width 0.05) (tstamp fb323a23-75a3-4622-80cc-9760b5059418))\u000a    (fp_line (start -0.8 0.4) (end -0.8 -0.4) (layer "F.Fab") (width 0.1) (tstamp 20962a4b-27a7-40f5-9077-eef9653e665c))\u000a    (fp_line (start 0.8 0.4) (end -0.8 0.4) (layer "F.Fab") (width 0.1) (tstamp 76af9a6a-8ea8-4fe1-aac9-823a78776b3c))\u000a    (fp_line (start 0.8 -0.4) (end 0.8 0.4) (layer "F.Fab") (width 0.1) (tstamp a0500d9e-8d56-462a-9153-c165e3ceab5d))\u000a    (fp_line (start -0.8 -0.4) (end 0.8 -0.4) (layer "F.Fab") (width 0.1) (tstamp b3cd4071-8ce0-4c29-b970-5174498742ef))\u000a    (pad "1" smd roundrect (at -0.775 0 180) (size 0.9 0.95) (layers "F.Cu" "F.Paste" "F.Mask") (roundrect_rratio 0.25)\u000a      (net 10 "/v3s/buck converter V3s/3v3") (pintype "passive") (tstamp 0a265552-f08f-49c4-ba89-dd48ed617079))\u000a    (pad "2" smd roundrect (at 0.775 0 180) (size 0.9 0.95) (layers "F.Cu" "F.Paste" "F.Mask") (roundrect_rratio 0.25)\u000a      (net 1 "GND") (pintype "passive") (tstamp 283aec5d-6774-40e5-9146-184deec035ca))\u000a    (model "${KICAD6_3DMODEL_DIR}/Capacitor_SMD.3dshapes/C_0603_1608Metric.wrl"\u000a      (offset (xyz 0 0 0))\u000a      (scale (xyz 1 1 1))\u000a      (rotate (xyz 0 0 0))\u000a    )\u000a  )\u000a\u000a  (footprint "Inductor_SMD:L_1210_3225Metric" (layer "F.Cu")\u000a    (tedit 5F68FEF0) (tstamp ace67c1b-45dd-48ee-94ac-dc178e9c2f10)\u000a    (at 191.7084 78.9272 180)\u000a    (descr "Inductor SMD 1210 (3225 Metric), square (rectangular) end terminal, IPC_7351 nominal, (Body size source: http://www.tortai-tech.com/upload/download/2011102023233369053.pdf), generated with kicad-footprint-generator")\u000a    (tags "inductor")\u000a    (property "Sheetfile" "buck_converter_V3s.kicad_sch")\u000a    (property "Sheetname" "buck converter V3s")\u000a    (path "/042db8da-cff7-4ac8-89a4-1790464868eb/82d91010-9c5f-4fff-a514-ef7c0ddecdff/0f325b66-4791-4e68-9fcc-eab34d045faf")\u000a    (attr smd)\u000a    (fp_text reference "L3001" (at 0 -2 unlocked) (layer "F.SilkS")\u000a      (effects (font (size 0.6 0.6) (thickness 0.09)))\u000a      (tstamp ef745aa1-b388-4122-bf00-b8a57a432853)\u000a    )\u000a    (fp_text value "2.2uH DCR<0.1R 1.5A" (at 0 2.28 180 unlocked) (layer "F.Fab") hide\u000a      (effects (font (size 1 1) (thickness 0.15)))\u000a      (tstamp 5daf25e4-4f38-473e-97d4-02651ca67e01)\u000a    )\u000a    (fp_text user "${REFERENCE}" (at 0 0 180 unlocked) (layer "F.Fab") hide\u000a      (effects (font (size 1 1) (thickness 0.15)))\u000a      (tstamp cea6aa29-1543-4a8b-8a42-6c2a9eefe61e)\u000a    )\u000a    (fp_line (start -0.602064 1.36) (end 0.602064 1.36) (layer "F.SilkS") (width 0.12) (tstamp 07afec03-9107-4a63-8cac-388c0ef76ca3))\u000a    (fp_line (start -0.602064 -1.36) (end 0.602064 -1.36) (layer "F.SilkS") (width 0.12) (tstamp 7d3adb3b-bd75-4a62-a9e7-13fc86de4cf0))\u000a    (fp_line (start 2.28 1.58) (end -2.28 1.58) (layer "F.CrtYd") (width 0.05) (tstamp 006bf403-9f1e-4f9b-802b-e1f6c806cc88))\u000a    (fp_line (start 2.28 -1.58) (end 2.28 1.58) (layer "F.CrtYd") (width 0.05) (tstamp 74b28aed-7e9c-4c74-af81-57a694781ba1))\u000a    (fp_line (start -2.28 1.58) (end -2.28 -1.58) (layer "F.CrtYd") (width 0.05) (tstamp 7a125ab2-f2ee-4c70-844b-a193fce9e02e))\u000a    (fp_line (start -2.28 -1.58) (end 2.28 -1.58) (layer "F.CrtYd") (width 0.05) (tstamp ec8d260c-f28b-48f7-b2cb-6d3c12585ba3))\u000a    (fp_line (start 1.6 -1.25) (end 1.6 1.25) (layer "F.Fab") (width 0.1) (tstamp 0f4b3b74-d22e-4c91-8bcd-3bd61fd99f2a))\u000a    (fp_line (start -1.6 1.25) (end -1.6 -1.25) (layer "F.Fab") (width 0.1) (tstamp 38935e0c-00b6-40ba-ad28-8833954ec0ad))\u000a    (fp_line (start -1.6 -1.25) (end 1.6 -1.25) (layer "F.Fab") (width 0.1) (tstamp 99b0c690-e4fc-41d5-9f0f-4eb9c1793308))\u000a    (fp_line (start 1.6 1.25) (end -1.6 1.25) (layer "F.Fab") (width 0.1) (tstamp cfb2bf8c-3e54-420b-9e26-02de2c6b14ae))\u000a    (pad "1" smd roundrect (at -1.4 0 180) (size 1.25 2.65) (layers "F.Cu" "F.Paste" "F.Mask") (roundrect_rratio 0.2)\u000a      (net 8 "/v3s/buck converter V3s/1V2") (pinfunction "1") (pintype "passive") (tstamp da112812-3444-4917-a2cd-3b53b5b61e78))\u000a    (pad "2" smd roundrect (at 1.4 0 180) (size 1.25 2.65) (layers "F.Cu" "F.Paste" "F.Mask") (roundrect_rratio 0.2)\u000a      (net 5 "Net-(L3001-Pad2)") (pinfunction "2") (pintype "passive") (tstamp 5e87d217-9efa-45ca-8610-4963efd052c4))\u000a    (model "${KICAD6_3DMODEL_DIR}/Inductor_SMD.3dshapes/L_1210_3225Metric.wrl"\u000a      (offset (xyz 0 0 0))\u000a      (scale (xyz 1 1 1))\u000a      (rotate (xyz 0 0 0))\u000a    )\u000a  )\u000a\u000a  (footprint "Package_TO_SOT_SMD:SOT-23" (layer "F.Cu")\u000a    (tedit 5FA16958) (tstamp b3cce3f0-139f-4e7d-829a-9a4dc8cd5e3a)\u000a    (at 171.85 74.55)\u000a    (descr "SOT, 3 Pin (https://www.jedec.org/system/files/docs/to-236h.pdf variant AB), generated with kicad-footprint-generator ipc_gullwing_generator.py")\u000a    (tags "SOT TO_SOT_SMD")\u000a    (property "Sheetfile" "buck_converter_V3s.kicad_sch")\u000a    (property "Sheetname" "buck converter V3s")\u000a    (path "/042db8da-cff7-4ac8-89a4-1790464868eb/82d91010-9c5f-4fff-a514-ef7c0ddecdff/b8c5f1ef-4253-4dec-a36b-340c98ab5976")\u000a    (attr smd)\u000a    (fp_text reference "U3001" (at -0.35 -2.25 unlocked) (layer "F.SilkS")\u000a      (effects (font (size 0.6 0.6) (thickness 0.09)))\u000a      (tstamp 2b2687c6-6c82-4bad-a84d-912938e186cb)\u000a    )\u000a    (fp_text value "XC6206P302MR" (at 0 2.4 unlocked) (layer "F.Fab") hide\u000a      (effects (font (size 1 1) (thickness 0.15)))\u000a      (tstamp ed049223-1193-4560-be58-9491af62c9bc)\u000a    )\u000a    (fp_text user "${REFERENCE}" (at 0 0 unlocked) (layer "F.Fab") hide\u000a      (effects (font (size 1 1) (thickness 0.15)))\u000a      (tstamp a3ebc353-c2c0-4784-9760-32ecf6e9b1b5)\u000a    )\u000a    (fp_line (start 0 -1.56) (end -1.675 -1.56) (layer "F.SilkS") (width 0.12) (tstamp d33b06a9-3910-4976-970c-657f93f55fc9))\u000a    (fp_line (start 0 1.56) (end -0.65 1.56) (layer "F.SilkS") (width 0.12) (tstamp e14524f1-4036-4b84-8f71-e4bfdb672fb9))\u000a    (fp_line (start 0 1.56) (end 0.65 1.56) (layer "F.SilkS") (width 0.12) (tstamp f2804b21-6b4d-443f-a3a5-5248c022e6ae))\u000a    (fp_line (start 0 -1.56) (end 0.65 -1.56) (layer "F.SilkS") (width 0.12) (tstamp faec3978-d370-426b-9149-1f22824c7c9f))\u000a    (fp_line (start -1.92 1.7) (end 1.92 1.7) (layer "F.CrtYd") (width 0.05) (tstamp 5c50f18d-5a8e-49ae-8a0f-ce533763b3f6))\u000a    (fp_line (start 1.92 1.7) (end 1.92 -1.7) (layer "F.CrtYd") (width 0.05) (tstamp bfd82160-80df-447f-add4-76aaaa377875))\u000a    (fp_line (start 1.92 -1.7) (end -1.92 -1.7) (layer "F.CrtYd") (width 0.05) (tstamp dd948873-8a83-4c93-8f6f-5d73f475b139))\u000a    (fp_line (start -1.92 -1.7) (end -1.92 1.7) (layer "F.CrtYd") (width 0.05) (tstamp f1f45c49-72f8-4352-af6f-2c0101b6d0c1))\u000a    (fp_line (start -0.65 1.45) (end -0.65 -1.125) (layer "F.Fab") (width 0.1) (tstamp 26956aa9-badb-485a-a864-1dababf03c00))\u000a    (fp_line (start -0.325 -1.45) (end 0.65 -1.45) (layer "F.Fab") (width 0.1) (tstamp 320ba62d-3a47-4a0b-8c77-65ed3801c815))\u000a    (fp_line (start 0.65 1.45) (end -0.65 1.45) (layer "F.Fab") (width 0.1) (tstamp 38a75b04-5039-4242-9980-f8582eec5d54))\u000a    (fp_line (start -0.65 -1.125) (end -0.325 -1.45) (layer "F.Fab") (width 0.1) (tstamp 3bc5d78d-61a2-42ae-a44c-9f740a7dd543))\u000a    (fp_line (start 0.65 -1.45) (end 0.65 1.45) (layer "F.Fab") (width 0.1) (tstamp f82b2198-e546-479a-b48a-ecaf6e65819c))\u000a    (pad "1" smd roundrect (at -0.9375 -0.95) (size 1.475 0.6) (layers "F.Cu" "F.Paste" "F.Mask") (roundrect_rratio 0.25)\u000a      (net 1 "GND") (pinfunction "GND") (pintype "power_in") (tstamp 3d2da916-4b2c-46bd-b4ee-ecd5511471fb))\u000a    (pad "2" smd roundrect (at -0.9375 0.95) (size 1.475 0.6) (layers "F.Cu" "F.Paste" "F.Mask") (roundrect_rratio 0.25)\u000a      (net 11 "/v3s/buck converter V3s/3V0") (pinfunction "VO") (pintype "power_out") (tstamp d737df9c-1d89-4fc6-821d-46b772359276))\u000a    (pad "3" smd roundrect (at 0.9375 0) (size 1.475 0.6) (layers "F.Cu" "F.Paste" "F.Mask") (roundrect_rratio 0.25)\u000a      (net 10 "/v3s/buck converter V3s/3v3") (pinfunction "VI") (pintype "power_in") (tstamp bfe2f272-d931-4f32-8cba-b7aad72f5dc1))\u000a    (model "${KICAD6_3DMODEL_DIR}/Package_TO_SOT_SMD.3dshapes/SOT-23.wrl"\u000a      (offset (xyz 0 0 0))\u000a      (scale (xyz 1 1 1))\u000a      (rotate (xyz 0 0 0))\u000a    )\u000a  )\u000a\u000a  (footprint "Capacitor_SMD:C_0603_1608Metric" (layer "F.Cu")\u000a    (tedit 5F68FEEE) (tstamp bb86aefb-8d09-47b2-934d-7387ec2f3bb7)\u000a    (at 183 71.725 90)\u000a    (descr "Capacitor SMD 0603 (1608 Metric), square (rectangular) end terminal, IPC_7351 nominal, (Body size source: IPC-SM-782 page 76, https://www.pcb-3d.com/wordpress/wp-content/uploads/ipc-sm-782a_amendment_1_and_2.pdf), generated with kicad-footprint-generator")\u000a    (tags "capacitor")\u000a    (property "Sheetfile" "buck_converter_V3s.kicad_sch")\u000a    (property "Sheetname" "buck converter V3s")\u000a    (path "/042db8da-cff7-4ac8-89a4-1790464868eb/82d91010-9c5f-4fff-a514-ef7c0ddecdff/158a8d6c-d0e6-4062-884e-66d533ef8033")\u000a    (attr smd)\u000a    (fp_text reference "C3008" (at 0 -1.25 90 unlocked) (layer "F.SilkS")\u000a      (effects (font (size 0.6 0.6) (thickness 0.09)))\u000a      (tstamp fd60d853-6c5f-45f2-8b9e-5d8d91116812)\u000a    )\u000a    (fp_text value "1uf" (at 0 1.43 90 unlocked) (layer "F.Fab") hide\u000a      (effects (font (size 1 1) (thickness 0.15)))\u000a      (tstamp 919eae35-3f85-4b81-9286-e48cbfb39623)\u000a    )\u000a    (fp_text user "${REFERENCE}" (at 0 0 90 unlocked) (layer "F.Fab") hide\u000a      (effects (font (size 1 1) (thickness 0.15)))\u000a      (tstamp cd67429c-4bc5-4dc9-9e2c-01cfd5b10209)\u000a    )\u000a    (fp_line (start -0.14058 0.51) (end 0.14058 0.51) (layer "F.SilkS") (width 0.12) (tstamp 70420cf7-ae9f-4faa-a423-0b479efb892c))\u000a    (fp_line (start -0.14058 -0.51) (end 0.14058 -0.51) (layer "F.SilkS") (width 0.12) (tstamp 7bd7ee33-a463-4023-9dd4-874cecd3e41a))\u000a    (fp_line (start -1.48 0.73) (end -1.48 -0.73) (layer "F.CrtYd") (width 0.05) (tstamp 027b2540-023c-4135-9e31-f97e58740af4))\u000a    (fp_line (start -1.48 -0.73) (end 1.48 -0.73) (layer "F.CrtYd") (width 0.05) (tstamp 5c705695-0288-4b2b-a73f-562d409d51d2))\u000a    (fp_line (start 1.48 -0.73) (end 1.48 0.73) (layer "F.CrtYd") (width 0.05) (tstamp 794779da-3a13-4fc0-bd95-b5a8e2b157f4))\u000a    (fp_line (start 1.48 0.73) (end -1.48 0.73) (layer "F.CrtYd") (width 0.05) (tstamp f742802d-e757-49d5-9a97-c225d745bb79))\u000a    (fp_line (start 0.8 0.4) (end -0.8 0.4) (layer "F.Fab") (width 0.1) (tstamp 3a1cb079-fd74-4a95-a840-45ef5da26f4a))\u000a    (fp_line (start 0.8 -0.4) (end 0.8 0.4) (layer "F.Fab") (width 0.1) (tstamp 4f62fd54-7d5d-47de-b99b-702dfb31db90))\u000a    (fp_line (start -0.8 -0.4) (end 0.8 -0.4) (layer "F.Fab") (width 0.1) (tstamp a2cf429c-1d4d-46a2-9c17-7d5b0c534567))\u000a    (fp_line (start -0.8 0.4) (end -0.8 -0.4) (layer "F.Fab") (width 0.1) (tstamp d891a55c-24cc-49f6-a530-daac0ce77be4))\u000a    (pad "1" smd roundrect (at -0.775 0 90) (size 0.9 0.95) (layers "F.Cu" "F.Paste" "F.Mask") (roundrect_rratio 0.25)\u000a      (net 12 "/v3s/buck converter V3s/5V") (pintype "passive") (tstamp 695faf64-0cc8-4cd6-8b73-a89ce04c256d))\u000a    (pad "2" smd roundrect (at 0.775 0 90) (size 0.9 0.95) (layers "F.Cu" "F.Paste" "F.Mask") (roundrect_rratio 0.25)\u000a      (net 1 "GND") (pintype "passive") (tstamp 4d0d92ed-7f48-496e-be33-5d4952528b92))\u000a    (model "${KICAD6_3DMODEL_DIR}/Capacitor_SMD.3dshapes/C_0603_1608Metric.wrl"\u000a      (offset (xyz 0 0 0))\u000a      (scale (xyz 1 1 1))\u000a      (rotate (xyz 0 0 0))\u000a    )\u000a  )\u000a\u000a  (footprint "Capacitor_SMD:C_0603_1608Metric" (layer "F.Cu")\u000a    (tedit 5F68FEEE) (tstamp c9bd1e01-6ce7-42b0-9ae9-70da1bea852b)\u000a    (at 185.5 71.75 90)\u000a    (descr "Capacitor SMD 0603 (1608 Metric), square (rectangular) end terminal, IPC_7351 nominal, (Body size source: IPC-SM-782 page 76, https://www.pcb-3d.com/wordpress/wp-content/uploads/ipc-sm-782a_amendment_1_and_2.pdf), generated with kicad-footprint-generator")\u000a    (tags "capacitor")\u000a    (property "Sheetfile" "buck_converter_V3s.kicad_sch")\u000a    (property "Sheetname" "buck converter V3s")\u000a    (path "/042db8da-cff7-4ac8-89a4-1790464868eb/82d91010-9c5f-4fff-a514-ef7c0ddecdff/cc3cd63d-ad7b-4515-9d6a-c2dc00c81285")\u000a    (attr smd)\u000a    (fp_text reference "C3009" (at 0 -1.25 90 unlocked) (layer "F.SilkS")\u000a      (effects (font (size 0.6 0.6) (thickness 0.09)))\u000a      (tstamp 666bfcc3-3543-4489-ae7a-5ddbd936ba34)\u000a    )\u000a    (fp_text value "10uf" (at 0 1.43 90 unlocked) (layer "F.Fab") hide\u000a      (effects (font (size 1 1) (thickness 0.15)))\u000a      (tstamp 835edbaf-a9c6-4096-8a47-81adfd7de257)\u000a    )\u000a    (fp_text user "${REFERENCE}" (at 0 0 90 unlocked) (layer "F.Fab") hide\u000a      (effects (font (size 1 1) (thickness 0.15)))\u000a      (tstamp a856d920-0e6e-4351-b370-a882abfb5f5b)\u000a    )\u000a    (fp_line (start -0.14058 0.51) (end 0.14058 0.51) (layer "F.SilkS") (width 0.12) (tstamp 0541b981-f472-4b8c-8b8b-7a36a3eb7d4b))\u000a    (fp_line (start -0.14058 -0.51) (end 0.14058 -0.51) (layer "F.SilkS") (width 0.12) (tstamp 12f060bb-1eb2-45bc-96cf-cc751d4a5984))\u000a    (fp_line (start -1.48 0.73) (end -1.48 -0.73) (layer "F.CrtYd") (width 0.05) (tstamp 211817c5-1551-40e5-9fc4-7be132ade4b7))\u000a    (fp_line (start 1.48 0.73) (end -1.48 0.73) (layer "F.CrtYd") (width 0.05) (tstamp c7d9aec5-8a92-4718-a52d-071c8fcea3cf))\u000a    (fp_line (start 1.48 -0.73) (end 1.48 0.73) (layer "F.CrtYd") (width 0.05) (tstamp e88c05a2-46aa-4ec4-9ce6-9de9d73b3ff8))\u000a    (fp_line (start -1.48 -0.73) (end 1.48 -0.73) (layer "F.CrtYd") (width 0.05) (tstamp fb8a62dc-b163-4281-b6bd-46a48fb3125a))\u000a    (fp_line (start 0.8 0.4) (end -0.8 0.4) (layer "F.Fab") (width 0.1) (tstamp 16f7a359-1ea4-4257-a06a-e0c30c25e4f0))\u000a    (fp_line (start -0.8 -0.4) (end 0.8 -0.4) (layer "F.Fab") (width 0.1) (tstamp 183a1ea2-bbe4-4720-a9ec-e71065b7352d))\u000a    (fp_line (start 0.8 -0.4) (end 0.8 0.4) (layer "F.Fab") (width 0.1) (tstamp 2969803b-e47d-4ee0-aa34-4c26ca9b85de))\u000a    (fp_line (start -0.8 0.4) (end -0.8 -0.4) (layer "F.Fab") (width 0.1) (tstamp e129f8dc-9e3c-4db8-8638-0311f99f9750))\u000a    (pad "1" smd roundrect (at -0.775 0 90) (size 0.9 0.95) (layers "F.Cu" "F.Paste" "F.Mask") (roundrect_rratio 0.25)\u000a      (net 12 "/v3s/buck converter V3s/5V") (pintype "passive") (tstamp 53cb9499-c8ca-437b-872d-c9535564d452))\u000a    (pad "2" smd roundrect (at 0.775 0 90) (size 0.9 0.95) (layers "F.Cu" "F.Paste" "F.Mask") (roundrect_rratio 0.25)\u000a      (net 1 "GND") (pintype "passive") (tstamp 6c6ab149-5a79-431a-9c91-aaa1b64a0736))\u000a    (model "${KICAD6_3DMODEL_DIR}/Capacitor_SMD.3dshapes/C_0603_1608Metric.wrl"\u000a      (offset (xyz 0 0 0))\u000a      (scale (xyz 1 1 1))\u000a      (rotate (xyz 0 0 0))\u000a    )\u000a  )\u000a\u000a  (footprint "Inductor_SMD:L_1210_3225Metric" (layer "F.Cu")\u000a    (tedit 5F68FEF0) (tstamp cbd0096e-9154-44cb-b7eb-d3617ad2fb72)\u000a    (at 175.1288 80.5556 -90)\u000a    (descr "Inductor SMD 1210 (3225 Metric), square (rectangular) end terminal, IPC_7351 nominal, (Body size source: http://www.tortai-tech.com/upload/download/2011102023233369053.pdf), generated with kicad-footprint-generator")\u000a    (tags "inductor")\u000a    (property "Sheetfile" "buck_converter_V3s.kicad_sch")\u000a    (property "Sheetname" "buck converter V3s")\u000a    (path "/042db8da-cff7-4ac8-89a4-1790464868eb/82d91010-9c5f-4fff-a514-ef7c0ddecdff/32f4881a-3d3e-4f48-8c11-a9fe1afb0b5a")\u000a    (attr smd)\u000a    (fp_text reference "L3002" (at 0 2 90 unlocked) (layer "F.SilkS")\u000a      (effects (font (size 0.6 0.6) (thickness 0.09)))\u000a      (tstamp 9c8508a0-c58b-4ad2-96ec-9679d78df093)\u000a    )\u000a    (fp_text value "2.2uH DCR<0.1R 1.5A" (at 0 2.28 -90 unlocked) (layer "F.Fab") hide\u000a      (effects (font (size 1 1) (thickness 0.15)))\u000a      (tstamp 72d0dde2-7eb1-4833-b7f1-796204d9f4c6)\u000a    )\u000a    (fp_text user "${REFERENCE}" (at 0 0 -90 unlocked) (layer "F.Fab") hide\u000a      (effects (font (size 1 1) (thickness 0.15)))\u000a      (tstamp c5c0942c-bdb4-4fe6-af5f-7af44683510e)\u000a    )\u000a    (fp_line (start -0.602064 -1.36) (end 0.602064 -1.36) (layer "F.SilkS") (width 0.12) (tstamp 87754b1c-865f-4b6b-bb0c-428c20260d1d))\u000a    (fp_line (start -0.602064 1.36) (end 0.602064 1.36) (layer "F.SilkS") (width 0.12) (tstamp cc767ef9-008b-437e-8e11-ebe84bf0aabc))\u000a    (fp_line (start -2.28 1.58) (end -2.28 -1.58) (layer "F.CrtYd") (width 0.05) (tstamp 2dafdd4a-3a84-4094-bd06-e76bfc9047b0))\u000a    (fp_line (start 2.28 -1.58) (end 2.28 1.58) (layer "F.CrtYd") (width 0.05) (tstamp 56985cfd-9a0b-4109-b3d0-28ba0ed6eb3f))\u000a    (fp_line (start 2.28 1.58) (end -2.28 1.58) (layer "F.CrtYd") (width 0.05) (tstamp 657f1bb7-ab63-42a6-b4c9-a8b75ae26e93))\u000a    (fp_line (start -2.28 -1.58) (end 2.28 -1.58) (layer "F.CrtYd") (width 0.05) (tstamp 8985edf1-2daa-4f6c-b445-3af67dc77ad2))\u000a    (fp_line (start 1.6 -1.25) (end 1.6 1.25) (layer "F.Fab") (width 0.1) (tstamp 5a31537b-db9b-4698-b389-cfa7fc4a2309))\u000a    (fp_line (start -1.6 -1.25) (end 1.6 -1.25) (layer "F.Fab") (width 0.1) (tstamp 72a5c8ef-c5bf-4d3f-aec4-d9806a358401))\u000a    (fp_line (start -1.6 1.25) (end -1.6 -1.25) (layer "F.Fab") (width 0.1) (tstamp b0008d04-0d79-4a19-83e3-146eaf1576cd))\u000a    (fp_line (start 1.6 1.25) (end -1.6 1.25) (layer "F.Fab") (width 0.1) (tstamp b2bd203c-1bb1-4a3f-976a-e2024139cabc))\u000a    (pad "1" smd roundrect (at -1.4 0 270) (size 1.25 2.65) (layers "F.Cu" "F.Paste" "F.Mask") (roundrect_rratio 0.2)\u000a      (net 9 "/v3s/buck converter V3s/1V8") (pinfunction "1") (pintype "passive") (tstamp 62362e4a-b077-44a3-bbb4-bcebba6f1d2f))\u000a    (pad "2" smd roundrect (at 1.4 0 270) (size 1.25 2.65) (layers "F.Cu" "F.Paste" "F.Mask") (roundrect_rratio 0.2)\u000a      (net 6 "Net-(L3002-Pad2)") (pinfunction "2") (pintype "passive") (tstamp fada632f-75f0-4a63-a3de-1567efed56e7))\u000a    (model "${KICAD6_3DMODEL_DIR}/Inductor_SMD.3dshapes/L_1210_3225Metric.wrl"\u000a      (offset (xyz 0 0 0))\u000a      (scale (xyz 1 1 1))\u000a      (rotate (xyz 0 0 0))\u000a    )\u000a  )\u000a\u000a  (footprint "Resistor_SMD:R_0603_1608Metric" (layer "F.Cu")\u000a    (tedit 5F68FEEE) (tstamp d49f31c3-051f-432b-b0f9-a0436639feda)\u000a    (at 179.6288 76.5556 -90)\u000a    (descr "Resistor SMD 0603 (1608 Metric), square (rectangular) end terminal, IPC_7351 nominal, (Body size source: IPC-SM-782 page 72, https://www.pcb-3d.com/wordpress/wp-content/uploads/ipc-sm-782a_amendment_1_and_2.pdf), generated with kicad-footprint-generator")\u000a    (tags "resistor")\u000a    (property "Sheetfile" "buck_converter_V3s.kicad_sch")\u000a    (property "Sheetname" "buck converter V3s")\u000a    (path "/042db8da-cff7-4ac8-89a4-1790464868eb/82d91010-9c5f-4fff-a514-ef7c0ddecdff/7b7f59ed-3df8-439c-bada-ec801ace5ad8")\u000a    (attr smd)\u000a    (fp_text reference "R3002" (at 0.075 1.15 90 unlocked) (layer "F.SilkS")\u000a      (effects (font (size 0.6 0.6) (thickness 0.09)))\u000a      (tstamp 23d3f8fe-8ee4-470d-9c27-65fbfeee28d3)\u000a    )\u000a    (fp_text value "100K(Rb)" (at 0 1.43 -90 unlocked) (layer "F.Fab") hide\u000a      (effects (font (size 1 1) (thickness 0.15)))\u000a      (tstamp e902fcdc-656f-4f4a-bdd0-afd9da785a43)\u000a    )\u000a    (fp_text user "${REFERENCE}" (at 0 0 -90 unlocked) (layer "F.Fab") hide\u000a      (effects (font (size 1 1) (thickness 0.15)))\u000a      (tstamp 294bd249-a9e4-4feb-979f-cdecd6cb9078)\u000a    )\u000a    (fp_line (start -0.237258 -0.5225) (end 0.237258 -0.5225) (layer "F.SilkS") (width 0.12) (tstamp 5778db3c-d2d2-41aa-9ce1-af8f436913cb))\u000a    (fp_line (start -0.237258 0.5225) (end 0.237258 0.5225) (layer "F.SilkS") (width 0.12) (tstamp cbbf12a6-9b6d-4651-8d7e-f7a347cccc35))\u000a    (fp_line (start 1.48 -0.73) (end 1.48 0.73) (layer "F.CrtYd") (width 0.05) (tstamp 80d745bc-8606-4f20-91e0-6aeb5f053b10))\u000a    (fp_line (start -1.48 0.73) (end -1.48 -0.73) (layer "F.CrtYd") (width 0.05) (tstamp a29e52a6-9379-441f-acce-3d5efa690722))\u000a    (fp_line (start -1.48 -0.73) (end 1.48 -0.73) (layer "F.CrtYd") (width 0.05) (tstamp a5a4cba5-c434-46d5-92ce-3983c0a41058))\u000a    (fp_line (start 1.48 0.73) (end -1.48 0.73) (layer "F.CrtYd") (width 0.05) (tstamp d53543f4-f5dc-4468-80f0-2572a1d2dd19))\u000a    (fp_line (start 0.8 0.4125) (end -0.8 0.4125) (layer "F.Fab") (width 0.1) (tstamp 108b2c6b-7fb9-48be-b512-8bb93a0a0833))\u000a    (fp_line (start -0.8 0.4125) (end -0.8 -0.4125) (layer "F.Fab") (width 0.1) (tstamp 64381fda-02e0-46a2-a915-3ede521370cd))\u000a    (fp_line (start 0.8 -0.4125) (end 0.8 0.4125) (layer "F.Fab") (width 0.1) (tstamp 7345c18d-eeaa-45e2-9aaf-32b17eb9124e))\u000a    (fp_line (start -0.8 -0.4125) (end 0.8 -0.4125) (layer "F.Fab") (width 0.1) (tstamp 7c602aa6-7599-428e-a8c2-60b396707057))\u000a    (pad "1" smd roundrect (at -0.825 0 270) (size 0.8 0.95) (layers "F.Cu" "F.Paste" "F.Mask") (roundrect_rratio 0.25)\u000a      (net 3 "Net-(C3005-Pad2)") (pintype "passive") (tstamp be68a859-612a-43ae-a747-d49401f94000))\u000a    (pad "2" smd roundrect (at 0.825 0 270) (size 0.8 0.95) (layers "F.Cu" "F.Paste" "F.Mask") (roundrect_rratio 0.25)\u000a      (net 1 "GND") (pintype "passive") (tstamp 27f41689-4e40-407f-9f95-58a71f261362))\u000a    (model "${KICAD6_3DMODEL_DIR}/Resistor_SMD.3dshapes/R_0603_1608Metric.wrl"\u000a      (offset (xyz 0 0 0))\u000a      (scale (xyz 1 1 1))\u000a      (rotate (xyz 0 0 0))\u000a    )\u000a  )\u000a\u000a  (footprint "TestPoint:TestPoint_Pad_D1.0mm" (layer "F.Cu")\u000a    (tedit 5A0F774F) (tstamp ea32e8ae-6587-4a4f-8bbe-03e888256915)\u000a    (at 169.75 77.5)\u000a    (descr "SMD pad as test Point, diameter 1.0mm")\u000a    (tags "test point SMD pad")\u000a    (property "Sheetfile" "buck_converter_V3s.kicad_sch")\u000a    (property "Sheetname" "buck converter V3s")\u000a    (path "/042db8da-cff7-4ac8-89a4-1790464868eb/82d91010-9c5f-4fff-a514-ef7c0ddecdff/db732627-6b0b-4f95-bbf1-e8dafc0abeb6")\u000a    (attr exclude_from_pos_files)\u000a    (fp_text reference "TP3004" (at 0 -1.448 unlocked) (layer "F.SilkS") hide\u000a      (effects (font (size 0.6 0.6) (thickness 0.09)))\u000a      (tstamp 1aaf127d-0601-49a2-9276-4f8183f60444)\u000a    )\u000a    (fp_text value "3v0" (at 0 1.2 unlocked) (layer "F.SilkS")\u000a      (effects (font (size 0.6 0.6) (thickness 0.09)))\u000a      (tstamp 30190d16-d8e8-45f6-97f6-858f7ad71ecc)\u000a    )\u000a    (fp_circle (center 0 0) (end 0 0.7) (layer "F.SilkS") (width 0.12) (fill none) (tstamp 64c25024-ce90-4f61-aef9-b0597e50fb5a))\u000a    (fp_circle (center 0 0) (end 1 0) (layer "F.CrtYd") (width 0.05) (fill none) (tstamp 9d9f19cd-32d1-40cd-91c1-f8f62c18aa43))\u000a    (pad "1" smd circle (at 0 0) (size 1 1) (layers "F.Cu" "F.Mask")\u000a      (net 11 "/v3s/buck converter V3s/3V0") (pinfunction "1") (pintype "passive") (tstamp dbdc2c4e-ffec-4292-830a-0b1ff7ea112e))\u000a  )\u000a\u000a  (footprint "Capacitor_SMD:C_0603_1608Metric" (layer "F.Cu")\u000a    (tedit 5F68FEEE) (tstamp eeecde3c-1838-4c43-866e-4d85c3649a96)\u000a    (at 184.5 80.475 -90)\u000a    (descr "Capacitor SMD 0603 (1608 Metric), square (rectangular) end terminal, IPC_7351 nominal, (Body size source: IPC-SM-782 page 76, https://www.pcb-3d.com/wordpress/wp-content/uploads/ipc-sm-782a_amendment_1_and_2.pdf), generated with kicad-footprint-generator")\u000a    (tags "capacitor")\u000a    (property "Sheetfile" "buck_converter_V3s.kicad_sch")\u000a    (property "Sheetname" "buck converter V3s")\u000a    (path "/042db8da-cff7-4ac8-89a4-1790464868eb/82d91010-9c5f-4fff-a514-ef7c0ddecdff/f1d6d7b7-cd36-4b11-a10a-5482d18748dd")\u000a    (attr smd)\u000a    (fp_text reference "C3011" (at 0.025 1.25 90 unlocked) (layer "F.SilkS")\u000a      (effects (font (size 0.6 0.6) (thickness 0.09)))\u000a      (tstamp 3f278db5-9970-4ec9-9465-4fa93fab77fb)\u000a    )\u000a    (fp_text value "1uf" (at 0 1.43 -90 unlocked) (layer "F.Fab") hide\u000a      (effects (font (size 1 1) (thickness 0.15)))\u000a      (tstamp 1eba07d1-7433-4eed-86d6-4653995f2033)\u000a    )\u000a    (fp_text user "${REFERENCE}" (at 0 0 -90 unlocked) (layer "F.Fab") hide\u000a      (effects (font (size 1 1) (thickness 0.15)))\u000a      (tstamp 1f025590-20aa-406a-96a0-4339fe4f0bcb)\u000a    )\u000a    (fp_line (start -0.14058 -0.51) (end 0.14058 -0.51) (layer "F.SilkS") (width 0.12) (tstamp 09841b16-a27a-4285-9791-6add2fd51224))\u000a    (fp_line (start -0.14058 0.51) (end 0.14058 0.51) (layer "F.SilkS") (width 0.12) (tstamp 8216e429-dbee-4c41-9d86-012749a93eec))\u000a    (fp_line (start 1.48 0.73) (end -1.48 0.73) (layer "F.CrtYd") (width 0.05) (tstamp 03d99cc0-4f77-471e-a0f0-6902c86a9e06))\u000a    (fp_line (start -1.48 -0.73) (end 1.48 -0.73) (layer "F.CrtYd") (width 0.05) (tstamp 2e3b38f7-e06c-4bcc-9f26-aedf8c238c88))\u000a    (fp_line (start 1.48 -0.73) (end 1.48 0.73) (layer "F.CrtYd") (width 0.05) (tstamp 31a5a283-0f35-4b2f-8bae-cf5746928d5c))\u000a    (fp_line (start -1.48 0.73) (end -1.48 -0.73) (layer "F.CrtYd") (width 0.05) (tstamp a16bc276-8980-4fd0-9b62-e7fe9c7c3b2e))\u000a    (fp_line (start 0.8 0.4) (end -0.8 0.4) (layer "F.Fab") (width 0.1) (tstamp 1028c051-07c3-4b15-bc1e-50b48097af84))\u000a    (fp_line (start -0.8 -0.4) (end 0.8 -0.4) (layer "F.Fab") (width 0.1) (tstamp 468c7593-2bff-4579-b87f-aa30ad3e7428))\u000a    (fp_line (start 0.8 -0.4) (end 0.8 0.4) (layer "F.Fab") (width 0.1) (tstamp 4767fd88-619f-491d-8078-e7b471a28760))\u000a    (fp_line (start -0.8 0.4) (end -0.8 -0.4) (layer "F.Fab") (width 0.1) (tstamp bbcced57-e130-47f7-b777-92651cabbfe9))\u000a    (pad "1" smd roundrect (at -0.775 0 270) (size 0.9 0.95) (layers "F.Cu" "F.Paste" "F.Mask") (roundrect_rratio 0.25)\u000a      (net 12 "/v3s/buck converter V3s/5V") (pintype "passive") (tstamp 1d273d65-0c39-480a-8cf1-c93905f02ad2))\u000a    (pad "2" smd roundrect (at 0.775 0 270) (size 0.9 0.95) (layers "F.Cu" "F.Paste" "F.Mask") (roundrect_rratio 0.25)\u000a      (net 1 "GND") (pintype "passive") (tstamp ce56e924-586d-46c2-b2ec-a68ec2dee8a0))\u000a    (model "${KICAD6_3DMODEL_DIR}/Capacitor_SMD.3dshapes/C_0603_1608Metric.wrl"\u000a      (offset (xyz 0 0 0))\u000a      (scale (xyz 1 1 1))\u000a      (rotate (xyz 0 0 0))\u000a    )\u000a  )\u000a\u000a  (footprint "Resistor_SMD:R_0603_1608Metric" (layer "F.Cu")\u000a    (tedit 5F68FEEE) (tstamp ef477854-df99-4cb8-a967-288835b3dafc)\u000a    (at 186.8584 75.6772 -90)\u000a    (descr "Resistor SMD 0603 (1608 Metric), square (rectangular) end terminal, IPC_7351 nominal, (Body size source: IPC-SM-782 page 72, https://www.pcb-3d.com/wordpress/wp-content/uploads/ipc-sm-782a_amendment_1_and_2.pdf), generated with kicad-footprint-generator")\u000a    (tags "resistor")\u000a    (property "Sheetfile" "buck_converter_V3s.kicad_sch")\u000a    (property "Sheetname" "buck converter V3s")\u000a    (path "/042db8da-cff7-4ac8-89a4-1790464868eb/82d91010-9c5f-4fff-a514-ef7c0ddecdff/0e5f6f64-aacc-478e-8f7d-0db1958ea6c8")\u000a    (attr smd)\u000a    (fp_text reference "R3001" (at 0 1.25 90 unlocked) (layer "F.SilkS")\u000a      (effects (font (size 0.6 0.6) (thickness 0.09)))\u000a      (tstamp 0de3e62a-e525-45d7-89eb-242f0c49a2f4)\u000a    )\u000a    (fp_text value "150K(Rb)" (at 0 1.43 -90 unlocked) (layer "F.Fab") hide\u000a      (effects (font (size 1 1) (thickness 0.15)))\u000a      (tstamp 36364ac2-c772-41eb-99a1-e4ee8a15ac69)\u000a    )\u000a    (fp_text user "${REFERENCE}" (at 0 0 -90 unlocked) (layer "F.Fab") hide\u000a      (effects (font (size 1 1) (thickness 0.15)))\u000a      (tstamp 9f2055dd-949b-4eec-8039-2176dee3272b)\u000a    )\u000a    (fp_line (start -0.237258 -0.5225) (end 0.237258 -0.5225) (layer "F.SilkS") (width 0.12) (tstamp 06ebd738-b55a-4b67-a6c0-8552ff34a620))\u000a    (fp_line (start -0.237258 0.5225) (end 0.237258 0.5225) (layer "F.SilkS") (width 0.12) (tstamp 2d28a084-979c-4166-8144-70fafdf2ee33))\u000a    (fp_line (start -1.48 -0.73) (end 1.48 -0.73) (layer "F.CrtYd") (width 0.05) (tstamp 3443fe9b-29d9-4f70-bc9a-999a8d69b2e9))\u000a    (fp_line (start -1.48 0.73) (end -1.48 -0.73) (layer "F.CrtYd") (width 0.05) (tstamp 6f2e6c70-3b0e-45dd-b2ed-4a64d59d0668))\u000a    (fp_line (start 1.48 -0.73) (end 1.48 0.73) (layer "F.CrtYd") (width 0.05) (tstamp d815a228-fe55-492e-a3a6-e5afbf2bd78b))\u000a    (fp_line (start 1.48 0.73) (end -1.48 0.73) (layer "F.CrtYd") (width 0.05) (tstamp eceb8534-0e5b-48af-a0b2-b5b73e56bc09))\u000a    (fp_line (start -0.8 0.4125) (end -0.8 -0.4125) (layer "F.Fab") (width 0.1) (tstamp 1e61bd0f-af54-4789-830b-159de43be36b))\u000a    (fp_line (start 0.8 0.4125) (end -0.8 0.4125) (layer "F.Fab") (width 0.1) (tstamp 558c638e-1bb6-432d-afc6-d231dc711705))\u000a    (fp_line (start -0.8 -0.4125) (end 0.8 -0.4125) (layer "F.Fab") (width 0.1) (tstamp 8e49c48b-e9da-4c77-ab4a-55725626f0f2))\u000a    (fp_line (start 0.8 -0.4125) (end 0.8 0.4125) (layer "F.Fab") (width 0.1) (tstamp b34ec067-c338-4002-9f76-97a5eb1cdccb))\u000a    (pad "1" smd roundrect (at -0.825 0 270) (size 0.8 0.95) (layers "F.Cu" "F.Paste" "F.Mask") (roundrect_rratio 0.25)\u000a      (net 2 "Net-(C3004-Pad2)") (pintype "passive") (tstamp dc9dd99f-f583-4ff4-9d32-8375476f87ff))\u000a    (pad "2" smd roundrect (at 0.825 0 270) (size 0.8 0.95) (layers "F.Cu" "F.Paste" "F.Mask") (roundrect_rratio 0.25)\u000a      (net 1 "GND") (pintype "passive") (tstamp a07e791f-7ef3-4e75-8af0-eb763f83059b))\u000a    (model "${KICAD6_3DMODEL_DIR}/Resistor_SMD.3dshapes/R_0603_1608Metric.wrl"\u000a      (offset (xyz 0 0 0))\u000a      (scale (xyz 1 1 1))\u000a      (rotate (xyz 0 0 0))\u000a    )\u000a  )\u000a\u000a  (footprint "Package_DFN_QFN:QFN-20-1EP_3x3mm_P0.4mm_EP1.65x1.65mm" (layer "F.Cu")\u000a    (tedit 5DC5F6A3) (tstamp ffae9a7c-c919-48aa-8dbf-5eb4bc5e1ee1)\u000a    (at 183 76.5)\u000a    (descr "QFN, 20 Pin (https://www.analog.com/media/en/technical-documentation/data-sheets/3553fc.pdf#page=34), generated with kicad-footprint-generator ipc_noLead_generator.py")\u000a    (tags "QFN NoLead")\u000a    (property "Sheetfile" "buck_converter_V3s.kicad_sch")\u000a    (property "Sheetname" "buck converter V3s")\u000a    (path "/042db8da-cff7-4ac8-89a4-1790464868eb/82d91010-9c5f-4fff-a514-ef7c0ddecdff/24fe9cf0-ec32-4bea-a9ce-82618b6186a7")\u000a    (attr smd)\u000a    (fp_text reference "U3002" (at 0 -2.82 unlocked) (layer "F.SilkS")\u000a      (effects (font (size 0.6 0.6) (thickness 0.09)))\u000a      (tstamp 23002654-9804-47ce-a0ce-3d08ec1a2d6c)\u000a    )\u000a    (fp_text value "EA3036" (at 0 2.82 unlocked) (layer "F.Fab") hide\u000a      (effects (font (size 1 1) (thickness 0.15)))\u000a      (tstamp 8334fc38-9709-4c94-8955-13f5819759ac)\u000a    )\u000a    (fp_text user "${REFERENCE}" (at 0 0 unlocked) (layer "F.Fab") hide\u000a      (effects (font (size 1 1) (thickness 0.15)))\u000a      (tstamp 0ed00447-2ffc-40f4-ae95-c707f81a9484)\u000a    )\u000a    (fp_line (start 1.61 -1.61) (end 1.61 -1.16) (layer "F.SilkS") (width 0.12) (tstamp 2ba919b4-9bfa-4202-a323-de69e75a5bfb))\u000a    (fp_line (start 1.16 -1.61) (end 1.61 -1.61) (layer "F.SilkS") (width 0.12) (tstamp 2f78a4dc-7493-4fc3-a412-95a675b310f5))\u000a    (fp_line (start 1.61 1.61) (end 1.61 1.16) (layer "F.SilkS") (width 0.12) (tstamp 351fa0cb-47f7-43a9-8933-bafcbc08a886))\u000a    (fp_line (start -1.61 1.61) (end -1.61 1.16) (layer "F.SilkS") (width 0.12) (tstamp 66d9c120-aa74-4773-a174-efbbc5f4f71e))\u000a    (fp_line (start -1.16 1.61) (end -1.61 1.61) (layer "F.SilkS") (width 0.12) (tstamp 6fbaccf1-87c7-4beb-a229-25e8906dcc7a))\u000a    (fp_line (start 1.16 1.61) (end 1.61 1.61) (layer "F.SilkS") (width 0.12) (tstamp a4c341d6-77fc-4824-b6f0-513535151e7f))\u000a    (fp_line (start -1.16 -1.61) (end -1.61 -1.61) (layer "F.SilkS") (width 0.12) (tstamp ad827489-8c22-4b06-9773-320bc851c7bb))\u000a    (fp_line (start 2.12 2.12) (end 2.12 -2.12) (layer "F.CrtYd") (width 0.05) (tstamp 42536eac-fa73-4a31-8033-88a8807fc8d7))\u000a    (fp_line (start -2.12 2.12) (end 2.12 2.12) (layer "F.CrtYd") (width 0.05) (tstamp 5a3a73ca-c8e4-4f78-a087-cdab02e1faf1))\u000a    (fp_line (start -2.12 -2.12) (end -2.12 2.12) (layer "F.CrtYd") (width 0.05) (tstamp 6bbe5d89-2e77-4991-97b9-c3f083a84590))\u000a    (fp_line (start 2.12 -2.12) (end -2.12 -2.12) (layer "F.CrtYd") (width 0.05) (tstamp 9068dcb7-0abc-471b-8713-c7f548fcdb91))\u000a    (fp_line (start 1.5 -1.5) (end 1.5 1.5) (layer "F.Fab") (width 0.1) (tstamp a7accfb5-61dc-4056-b47e-f13cc5bcef32))\u000a    (fp_line (start -1.5 1.5) (end -1.5 -0.75) (layer "F.Fab") (width 0.1) (tstamp a973c216-1d98-433b-933e-8048187315df))\u000a    (fp_line (start -1.5 -0.75) (end -0.75 -1.5) (layer "F.Fab") (width 0.1) (tstamp cc87fd1c-f33e-41bc-8054-69da1d220d89))\u000a    (fp_line (start 1.5 1.5) (end -1.5 1.5) (layer "F.Fab") (width 0.1) (tstamp d42e8870-7267-4a48-8c30-7a3b41f170f8))\u000a    (fp_line (start -0.75 -1.5) (end 1.5 -1.5) (layer "F.Fab") (width 0.1) (tstamp f893d4f2-3c95-4d0b-b7fa-b147d572d9be))\u000a    (pad "" smd roundrect (at 0.41 -0.41) (size 0.67 0.67) (layers "F.Paste") (roundrect_rratio 0.25) (tstamp 2613a3ae-5341-4f3f-a5c1-4f02c85a02d2))\u000a    (pad "" smd roundrect (at -0.41 0.41) (size 0.67 0.67) (layers "F.Paste") (roundrect_rratio 0.25) (tstamp 5f04995a-0782-48e9-8f19-08e8a6ade863))\u000a    (pad "" smd roundrect (at 0.41 0.41) (size 0.67 0.67) (layers "F.Paste") (roundrect_rratio 0.25) (tstamp a2d031ee-4f6a-42bd-8a7c-4dbeb8942f8a))\u000a    (pad "" smd roundrect (at -0.41 -0.41) (size 0.67 0.67) (layers "F.Paste") (roundrect_rratio 0.25) (tstamp a954d9ea-4c0a-4f6a-bef9-a818b07f6b73))\u000a    (pad "1" smd roundrect (at -1.45 -0.8) (size 0.85 0.2) (layers "F.Cu" "F.Paste" "F.Mask") (roundrect_rratio 0.25)\u000a      (net 1 "GND") (pinfunction "GND3") (pintype "power_in") (tstamp 53ca60c7-a917-4acc-9916-f80c8e4c4173))\u000a    (pad "2" smd roundrect (at -1.45 -0.4) (size 0.85 0.2) (layers "F.Cu" "F.Paste" "F.Mask") (roundrect_rratio 0.25)\u000a      (net 4 "Net-(C3006-Pad2)") (pinfunction "FB3") (pintype "power_out") (tstamp ed781e90-b6ae-4921-ac9f-5adf4d4b47b8))\u000a    (pad "3" smd roundrect (at -1.45 0) (size 0.85 0.2) (layers "F.Cu" "F.Paste" "F.Mask") (roundrect_rratio 0.25)\u000a      (net 3 "Net-(C3005-Pad2)") (pinfunction "FB2") (pintype "power_out") (tstamp 5016506f-2dac-411e-a869-c95b6f997b8a))\u000a    (pad "4" smd roundrect (at -1.45 0.4) (size 0.85 0.2) (layers "F.Cu" "F.Paste" "F.Mask") (roundrect_rratio 0.25)\u000a      (net 1 "GND") (pinfunction "GND2") (pintype "power_in") (tstamp 385c7512-050a-4c46-8286-3ce0c3ebef24))\u000a    (pad "5" smd roundrect (at -1.45 0.8) (size 0.85 0.2) (layers "F.Cu" "F.Paste" "F.Mask") (roundrect_rratio 0.25)\u000a      (net 1 "GND") (pinfunction "GND2") (pintype "power_in") (tstamp ed5b9b6c-fc51-4c78-a4fb-56191a0b5a57))\u000a    (pad "6" smd roundrect (at -0.8 1.45) (size 0.2 0.85) (layers "F.Cu" "F.Paste" "F.Mask") (roundrect_rratio 0.25)\u000a      (net 6 "Net-(L3002-Pad2)") (pinfunction "LX2") (pintype "power_out") (tstamp e5a3e5dd-25e7-460a-ab33-3f3a473dc3bd))\u000a    (pad "7" smd roundrect (at -0.4 1.45) (size 0.2 0.85) (layers "F.Cu" "F.Paste" "F.Mask") (roundrect_rratio 0.25)\u000a      (net 12 "/v3s/buck converter V3s/5V") (pinfunction "VIN2") (pintype "power_in") (tstamp 641052fb-5813-42c1-ada8-4135f0b4e768))\u000a    (pad "8" smd roundrect (at 0 1.45) (size 0.2 0.85) (layers "F.Cu" "F.Paste" "F.Mask") (roundrect_rratio 0.25)\u000a      (net 12 "/v3s/buck converter V3s/5V") (pinfunction "EN2") (pintype "input") (tstamp b3eaecd3-2708-4bc4-bfbe-7502944d867b))\u000a    (pad "9" smd roundrect (at 0.4 1.45) (size 0.2 0.85) (layers "F.Cu" "F.Paste" "F.Mask") (roundrect_rratio 0.25)\u000a      (net 12 "/v3s/buck converter V3s/5V") (pinfunction "EN1") (pintype "input") (tstamp d05073a8-1c32-4dc5-9213-5cbd24330cbb))\u000a    (pad "10" smd roundrect (at 0.8 1.45) (size 0.2 0.85) (layers "F.Cu" "F.Paste" "F.Mask") (roundrect_rratio 0.25)\u000a      (net 12 "/v3s/buck converter V3s/5V") (pinfunction "VIN1") (pintype "power_in") (tstamp 7b88b038-5a87-41f1-99ce-819ca04fd075))\u000a    (pad "11" smd roundrect (at 1.45 0.8) (size 0.85 0.2) (layers "F.Cu" "F.Paste" "F.Mask") (roundrect_rratio 0.25)\u000a      (net 5 "Net-(L3001-Pad2)") (pinfunction "LX1") (pintype "power_out") (tstamp 16038047-4ffa-40de-b146-93a821692a98))\u000a    (pad "12" smd roundrect (at 1.45 0.4) (size 0.85 0.2) (layers "F.Cu" "F.Paste" "F.Mask") (roundrect_rratio 0.25)\u000a      (net 1 "GND") (pinfunction "GND1") (pintype "power_in") (tstamp 27ffdc4f-9c8e-45e8-bb54-f77ec63ef7bf))\u000a    (pad "13" smd roundrect (at 1.45 0) (size 0.85 0.2) (layers "F.Cu" "F.Paste" "F.Mask") (roundrect_rratio 0.25)\u000a      (net 1 "GND") (pinfunction "GND1") (pintype "power_in") (tstamp 89ba6254-9b85-4b59-9074-f20ea2e8e23a))\u000a    (pad "14" smd roundrect (at 1.45 -0.4) (size 0.85 0.2) (layers "F.Cu" "F.Paste" "F.Mask") (roundrect_rratio 0.25)\u000a      (net 2 "Net-(C3004-Pad2)") (pinfunction "FB1") (pintype "power_out") (tstamp c07eb43e-4679-4a9e-9df9-edbd0a5b1d1f))\u000a    (pad "15" smd roundrect (at 1.45 -0.8) (size 0.85 0.2) (layers "F.Cu" "F.Paste" "F.Mask") (roundrect_rratio 0.25)\u000a      (net 1 "GND") (pinfunction "AGND") (pintype "power_in") (tstamp 69c4ca6a-5fee-46be-9fcf-bfd24fda4e69))\u000a    (pad "16" smd roundrect (at 0.8 -1.45) (size 0.2 0.85) (layers "F.Cu" "F.Paste" "F.Mask") (roundrect_rratio 0.25)\u000a      (net 12 "/v3s/buck converter V3s/5V") (pinfunction "VCC") (pintype "power_in") (tstamp aae625e1-5f16-4ce1-b4d1-8157e745f0fd))\u000a    (pad "17" smd roundrect (at 0.4 -1.45) (size 0.2 0.85) (layers "F.Cu" "F.Paste" "F.Mask") (roundrect_rratio 0.25)\u000a      (net 1 "GND") (pinfunction "AGND") (pintype "power_in") (tstamp 7bb4126d-383a-44de-b55a-0229c4fd8aec))\u000a    (pad "18" smd roundrect (at 0 -1.45) (size 0.2 0.85) (layers "F.Cu" "F.Paste" "F.Mask") (roundrect_rratio 0.25)\u000a      (net 12 "/v3s/buck converter V3s/5V") (pinfunction "EN3") (pintype "input") (tstamp 2bcd9961-a84f-4dbf-905a-33dc90c8759d))\u000a    (pad "19" smd roundrect (at -0.4 -1.45) (size 0.2 0.85) (layers "F.Cu" "F.Paste" "F.Mask") (roundrect_rratio 0.25)\u000a      (net 12 "/v3s/buck converter V3s/5V") (pinfunction "VIN3") (pintype "power_in") (tstamp f3702fa0-8ef8-4516-8a95-7348f533548a))\u000a    (pad "20" smd roundrect (at -0.8 -1.45) (size 0.2 0.85) (layers "F.Cu" "F.Paste" "F.Mask") (roundrect_rratio 0.25)\u000a      (net 7 "Net-(L3003-Pad2)") (pinfunction "LX3") (pintype "power_out") (tstamp 145b344f-82ef-4432-bd58-f2097ba5d54f))\u000a    (pad "21" smd rect (at 0 0) (size 1.65 1.65) (layers "F.Cu" "F.Mask")\u000a      (net 1 "GND") (pinfunction "pwr_disp") (pintype "passive") (tstamp c91d9ccd-6a0e-4391-93cf-e7f1027696b1))\u000a    (model "${KICAD6_3DMODEL_DIR}/Package_DFN_QFN.3dshapes/QFN-20-1EP_3x3mm_P0.4mm_EP1.65x1.65mm.wrl"\u000a      (offset (xyz 0 0 0))\u000a      (scale (xyz 1 1 1))\u000a      (rotate (xyz 0 0 0))\u000a    )\u000a  )\u000a\u000a  (segment (start 181.55 75.7) (end 182.2 75.7) (width 0.15) (layer "F.Cu") (net 1) (tstamp 06113410-a138-4dbb-987d-99d5fc09715e))\u000a  (segment (start 186.8584 76.5022) (end 186.8584 77.7022) (width 0.15) (layer "F.Cu") (net 1) (tstamp 0af5a3df-42a4-48a6-9100-f051abb46954))\u000a  (segment (start 184.05 76.5) (end 183 76.5) (width 0.15) (layer "F.Cu") (net 1) (tstamp 18486ee6-a23a-42d9-bc6c-25645c9e66e1))\u000a  (segment (start 170.7125 73.8) (end 170.9125 73.6) (width 0.25) (layer "F.Cu") (net 1) (tstamp 244290b4-e683-4f5c-9f67-48a8958329a5))\u000a  (segment (start 182.2 75.7) (end 183 76.5) (width 0.15) (layer "F.Cu") (net 1) (tstamp 2b5195e3-102c-4a00-8339-0f700e2235a0))\u000a  (segment (start 185.475 70.95) (end 185.5 70.975) (width 0.25) (layer "F.Cu") (net 1) (tstamp 31167ab1-a86a-44a1-be49-bc437e0d8dac))\u000a  (segment (start 184.45 76.5) (end 186.8562 76.5) (width 0.15) (layer "F.Cu") (net 1) (tstamp 33cc46d1-39a4-41d3-97c1-13e54386f6a6))\u000a  (segment (start 181.55 77.3) (end 179.7094 77.3) (width 0.15) (layer "F.Cu") (net 1) (tstamp 43c7a436-1a14-459c-82dd-5eb3064d05af))\u000a  (segment (start 181.6 77.25) (end 182.25 77.25) (width 0.15) (layer "F.Cu") (net 1) (tstamp 4479074e-7534-4bfa-be0c-0d15768d5c6e))\u000a  (segment (start 182.6 76.9) (end 183 76.5) (width 0.15) (layer "F.Cu") (net 1) (tstamp 467e80d4-9940-4182-927b-d9bfa152b080))\u000a  (segment (start 179.6288 77.3806) (end 179.6288 78.5806) (width 0.15) (layer "F.Cu") (net 1) (tstamp 4943a981-dedd-4f95-a109-1842ee8139a9))\u000a  (segment (start 173.8748 70.3954) (end 173.6498 70.1704) (width 0.5) (layer "F.Cu") (net 1) (tstamp 49b89faf-ad53-46b0-8245-b9b64acc5544))\u000a  (segment (start 179.7094 77.3) (end 179.6288 77.3806) (width 0.15) (layer "F.Cu") (net 1) (tstamp 4ec42040-b62a-4278-ba11-9eff9f8e2fbd))\u000a  (segment (start 184.45 75.7) (end 183.8 75.7) (width 0.15) (layer "F.Cu") (net 1) (tstamp 52b0028a-9dc6-408b-a125-f4095a98e97a))\u000a  (segment (start 183.4 76.1) (end 183 76.5) (width 0.15) (layer "F.Cu") (net 1) (tstamp 56504dd7-036e-464b-8ee5-8faaac432500))\u000a  (segment (start 181.55 77.3) (end 181.6 77.25) (width 0.15) (layer "F.Cu") (net 1) (tstamp 59f5c221-12dd-4311-b1a0-954ee46d11f4))\u000a  (segment (start 186.8584 77.7022) (end 187.0834 77.9272) (width 0.15) (layer "F.Cu") (net 1) (tstamp 673e2528-f93b-472d-b7c0-5307e975e435))\u000a  (segment (start 184.45 76.9) (end 184.05 76.5) (width 0.15) (layer "F.Cu") (net 1) (tstamp 81e28f9d-34de-4bdd-9716-eaa4cd02906e))\u000a  (segment (start 179.6288 78.5806) (end 179.1538 79.0556) (width 0.15) (layer "F.Cu") (net 1) (tstamp 91016114-4c15-4f4a-8679-b0b249a46f64))\u000a  (segment (start 181.55 76.9) (end 182.6 76.9) (width 0.15) (layer "F.Cu") (net 1) (tstamp 96d0effa-9661-4fb7-a3a4-176b1d943d03))\u000a  (segment (start 183.4 75.05) (end 183.4 76.1) (width 0.15) (layer "F.Cu") (net 1) (tstamp a5a3af6d-940d-438f-b913-9130ea141af4))\u000a  (segment (start 169.1 73.8) (end 170.7125 73.8) (width 0.25) (layer "F.Cu") (net 1) (tstamp ab9fb2c8-7371-4f7b-8238-13fb0d41a0b8))\u000a  (segment (start 184.45 75.05) (end 186.2 73.3) (width 0.15) (layer "F.Cu") (net 1) (tstamp b44d9eae-fd27-4879-b503-eb2ae606bd47))\u000a  (segment (start 184.45 76.5) (end 184.05 76.5) (width 0.15) (layer "F.Cu") (net 1) (tstamp b698ebfe-bca2-4e6e-a01d-67029c894d82))\u000a  (segment (start 184.45 75.7) (end 184.45 75.05) (width 0.15) (layer "F.Cu") (net 1) (tstamp bbf80159-d1d0-446b-9d91-eb1c29774f51))\u000a  (segment (start 186.8562 76.5) (end 186.8584 76.5022) (width 0.15) (layer "F.Cu") (net 1) (tstamp bdd08992-ecfe-4b4f-ab73-c60939f09ddf))\u000a  (segment (start 173.8748 71.8454) (end 173.8748 70.3954) (width 0.5) (layer "F.Cu") (net 1) (tstamp c324c59f-5808-4df6-87f0-40c66bf912be))\u000a  (segment (start 183 70.95) (end 185.475 70.95) (width 0.25) (layer "F.Cu") (net 1) (tstamp cac53fb6-c44b-4173-8064-b03f1b68bf56))\u000a  (segment (start 182.25 77.25) (end 183 76.5) (width 0.15) (layer "F.Cu") (net 1) (tstamp ce62f5fe-414e-4bcb-86ff-6ccf7631f196))\u000a  (segment (start 186.2 71.675) (end 185.5 70.975) (width 0.15) (layer "F.Cu") (net 1) (tstamp cf0ac88b-3046-4b50-9b8d-4b5bc3fae998))\u000a  (segment (start 186.2 73.3) (end 186.2 71.675) (width 0.15) (layer "F.Cu") (net 1) (tstamp deb5cfae-63d2-4bf4-b59c-dce8305323ad))\u000a  (segment (start 183.8 75.7) (end 183 76.5) (width 0.15) (layer "F.Cu") (net 1) (tstamp e414fdcc-0a49-4324-bcc7-baf8e000562f))\u000a  (segment (start 184.475 81.275) (end 184.5 81.25) (width 0.25) (layer "F.Cu") (net 1) (tstamp f039b9be-0c39-4781-9e30-e6a352905158))\u000a  (segment (start 182 81.275) (end 184.475 81.275) (width 0.25) (layer "F.Cu") (net 1) (tstamp fae3c66b-2632-48a6-ad66-a3fb9965b208))\u000a  (segment (start 184.45 76.1) (end 185.6106 76.1) (width 0.25) (layer "F.Cu") (net 2) (tstamp 469a71ef-bd0f-4506-843e-58fcba850942))\u000a  (segment (start 191.7334 74.8522) (end 191.8584 74.9772) (width 0.25) (layer "F.Cu") (net 2) (tstamp 63763b48-6d5d-4040-ad65-9fbf5bf9b979))\u000a  (segment (start 189.3584 74.8522) (end 191.7334 74.8522) (width 0.25) (layer "F.Cu") (net 2) (tstamp 9ad378d4-4d8d-4458-82fd-c2eb11dbaed1))\u000a  (segment (start 186.8584 74.8522) (end 189.3584 74.8522) (width 0.25) (layer "F.Cu") (net 2) (tstamp a6a0be14-7913-4835-9f92-2c3eb96d322c))\u000a  (segment (start 185.6106 76.1) (end 186.8584 74.8522) (width 0.25) (layer "F.Cu") (net 2) (tstamp b8108eff-5022-47a2-b043-f48771a58ed6))\u000a  (segment (start 174.8788 75.6556) (end 177.1288 75.6556) (width 0.25) (layer "F.Cu") (net 3) (tstamp 1674711b-5d7a-4977-a5ee-e7a3e0e7b667))\u000a  (segment (start 179.5788 75.7806) (end 179.6288 75.7306) (width 0.25) (layer "F.Cu") (net 3) (tstamp 24714f7d-b60f-42c1-a959-74bb92373ff0))\u000a  (segment (start 177.1288 75.6556) (end 177.2538 75.7806) (width 0.25) (layer "F.Cu") (net 3) (tstamp 6cf4c81c-297b-4bb0-83f9-9ce5347c87c7))\u000a  (segment (start 177.2538 75.7806) (end 179.5788 75.7806) (width 0.25) (layer "F.Cu") (net 3) (tstamp 7040c8d1-5690-4033-aedc-21bd805895d0))\u000a  (segment (start 180.3982 76.5) (end 179.6288 75.7306) (width 0.15) (layer "F.Cu") (net 3) (tstamp b23d4ab5-882c-4e77-b9aa-e19327ac6d8b))\u000a  (segment (start 181.55 76.5) (end 180.3982 76.5) (width 0.15) (layer "F.Cu") (net 3) (tstamp d27c5bbc-6ee4-4cc0-ab86-b866f11958dd))\u000a  (segment (start 176.1498 68.5954) (end 178.5748 68.5954) (width 0.5) (layer "F.Cu") (net 4) (tstamp 0bea95b0-a979-489c-a871-f5a01bd10e42))\u000a  (segment (start 179.3748 74.3204) (end 179.542128 74.3204) (width 0.5) (layer "F.Cu") (net 4) (tstamp 61b2a0d9-3ae6-4ee5-8a42-1429f1b6ad8f))\u000a  (segment (start 173.6498 68.5204) (end 176.0748 68.5204) (width 0.5) (layer "F.Cu") (net 4) (tstamp 61f011fc-d65d-4912-b710-44302209c241))\u000a  (segment (start 180.9004 76.1) (end 180.3788 75.5784) (width 0.25) (layer "F.Cu") (net 4) (tstamp 8cd84daf-271b-4a9d-9ea6-d900738fc18f))\u000a  (segment (start 176.0748 68.5204) (end 176.1498 68.5954) (width 0.5) (layer "F.Cu") (net 4) (tstamp af563505-786b-4187-8e3d-7f0ea81cc834))\u000a  (segment (start 179.542128 74.3204) (end 180.462464 75.240736) (width 0.5) (layer "F.Cu") (net 4) (tstamp b581a54d-4266-4b27-b138-4d983a507b1d))\u000a  (segment (start 179.3748 70.8704) (end 179.3748 74.3204) (width 0.5) (layer "F.Cu") (net 4) (tstamp d563c718-671b-4761-93e6-7e54fe7e7578))\u000a  (segment (start 180.3788 75.5784) (end 180.3788 75.3244) (width 0.25) (layer "F.Cu") (net 4) (tstamp d5a7f0db-78c2-4d79-a3a5-84888e81c12e))\u000a  (segment (start 179.5748 70.6704) (end 179.3748 70.8704) (width 0.5) (layer "F.Cu") (net 4) (tstamp d98c2a30-9765-4075-920c-f9203e21de79))\u000a  (segment (start 178.5748 68.5954) (end 178.6498 68.5204) (width 0.5) (layer "F.Cu") (net 4) (tstamp e5137608-cb33-447a-849f-b64c9c3b6173))\u000a  (segment (start 181.55 76.1) (end 180.9004 76.1) (width 0.25) (layer "F.Cu") (net 4) (tstamp e6e83b25-1896-450b-90e6-5205f26b2ad6))\u000a  (segment (start 178.6498 68.5204) (end 179.5748 69.4454) (width 0.5) (layer "F.Cu") (net 4) (tstamp f1fc2894-4cc8-4ed7-91a8-4bcbd1e9262a))\u000a  (segment (start 179.5748 69.4454) (end 179.5748 70.6704) (width 0.5) (layer "F.Cu") (net 4) (tstamp f9c7641c-afb7-403b-aa8f-c747e292f401))\u000a  (segment (start 185.0976 77.3) (end 184.45 77.3) (width 0.25) (layer "F.Cu") (net 5) (tstamp 59daa08d-f6dc-4db5-b260-1f44f5547e20))\u000a  (segment (start 190.2416 78.994) (end 186.7916 78.994) (width 0.25) (layer "F.Cu") (net 5) (tstamp d8b3ab63-2121-4820-a829-0ce3891ff059))\u000a  (segment (start 190.3084 78.9272) (end 190.2416 78.994) (width 0.25) (layer "F.Cu") (net 5) (tstamp db58a6b9-ecb6-44bc-97e2-c025bf2e5a93))\u000a  (segment (start 186.7916 78.994) (end 185.0976 77.3) (width 0.25) (layer "F.Cu") (net 5) (tstamp e45a67e5-e58c-4b26-acbc-f47d9d9a0cc9))\u000a  (segment (start 182.2 77.95) (end 181.7904 77.95) (width 0.25) (layer "F.Cu") (net 6) (tstamp 50ddc862-6487-4c22-8125-e4c0688440c1))\u000a  (segment (start 179.5272 80.2132) (end 176.8712 80.2132) (width 0.25) (layer "F.Cu") (net 6) (tstamp 6b022295-4045-4313-a9af-b9c00110c864))\u000a  (segment (start 181.7904 77.95) (end 179.5272 80.2132) (width 0.25) (layer "F.Cu") (net 6) (tstamp 8555884b-d327-4c47-ab5e-2841e8a240a5))\u000a  (segment (start 176.8712 80.2132) (end 175.1288 81.9556) (width 0.25) (layer "F.Cu") (net 6) (tstamp 8ccecad1-6196-40fc-a2dc-cf7b63575156))\u000a  (segment (start 181.7808 75.05) (end 180.4498 73.719) (width 0.25) (layer "F.Cu") (net 7) (tstamp 4b127d11-78ee-4949-87c2-75d6c55db034))\u000a  (segment (start 180.4498 73.719) (end 180.4498 72.5954) (width 0.25) (layer "F.Cu") (net 7) (tstamp 5be8a199-aaf3-43fd-a657-b4f65065598b))\u000a  (segment (start 182.2 75.05) (end 181.7808 75.05) (width 0.25) (layer "F.Cu") (net 7) (tstamp ff152246-f780-421d-a791-ab50ff54f499))\u000a  (segment (start 188.6334 77.9272) (end 188.6334 77.2272) (width 0.25) (layer "F.Cu") (net 8) (tstamp 4693b148-10bd-477e-b81e-c5c85e4f704b))\u000a  (segment (start 193.1084 78.9272) (end 193.1084 77.7772) (width 0.25) (layer "F.Cu") (net 8) (tstamp 48856b54-b346-45c9-8986-7336e32387e0))\u000a  (segment (start 188.6334 77.2272) (end 189.3584 76.5022) (width 0.25) (layer "F.Cu") (net 8) (tstamp 511e5d6d-86ca-46f1-9b1e-a7be96b8e657))\u000a  (segment (start 191.8334 76.5022) (end 191.8584 76.5272) (width 0.25) (layer "F.Cu") (net 8) (tstamp 849e8c15-eb81-4f2a-9abb-c11c16198e0a))\u000a  (segment (start 192.1356 76.25) (end 191.8584 76.5272) (width 0.25) (layer "F.Cu") (net 8) (tstamp 8fa95804-6267-4300-9df7-64dc95cd2b86))\u000a  (segment (start 193.75 76.25) (end 192.1356 76.25) (width 0.25) (layer "F.Cu") (net 8) (tstamp b76acba9-f771-4e1c-915d-11a3e03efc28))\u000a  (segment (start 193.1084 77.7772) (end 191.8584 76.5272) (width 0.25) (layer "F.Cu") (net 8) (tstamp c2aae0bd-3d7c-41bf-93e1-74e5bdddfe59))\u000a  (segment (start 189.3584 76.5022) (end 191.8334 76.5022) (width 0.25) (layer "F.Cu") (net 8) (tstamp c2f62596-ba73-48f3-8446-1cf93da08357))\u000a  (segment (start 172 77.5) (end 174.6844 77.5) (width 0.25) (layer "F.Cu") (net 9) (tstamp 15362124-d64e-4848-9964-f96a6a9e12d1))\u000a  (segment (start 175.4288 79.1556) (end 177.2538 77.3306) (width 0.25) (layer "F.Cu") (net 9) (tstamp 1d264f11-4706-47a4-a3cb-143fb69ec539))\u000a  (segment (start 175.1288 77.5556) (end 174.8788 77.3056) (width 0.25) (layer "F.Cu") (net 9) (tstamp 4701e5a0-eaa2-4470-a2a5-05a92398cf31))\u000a  (segment (start 177.6038 79.0556) (end 175.2288 79.0556) (width 0.25) (layer "F.Cu") (net 9) (tstamp 63dc2225-b72a-449e-bb88-8c0ca608344a))\u000a  (segment (start 175.2288 79.0556) (end 175.1288 79.1556) (width 0.25) (layer "F.Cu") (net 9) (tstamp 8338f9c8-dd90-4abd-81a0-5c5b5d04634e))\u000a  (segment (start 175.1288 79.1556) (end 175.1288 77.5556) (width 0.25) (layer "F.Cu") (net 9) (tstamp 88a4a19d-8202-4020-852c-9533d896f0d1))\u000a  (segment (start 174.6844 77.5) (end 174.8788 77.3056) (width 0.25) (layer "F.Cu") (net 9) (tstamp a202d52d-5824-4e0c-bac6-f73a27f31087))\u000a  (segment (start 177.2288 77.3056) (end 177.2538 77.3306) (width 0.25) (layer "F.Cu") (net 9) (tstamp adbb4365-495b-4b1c-b908-15be6cf99b2e))\u000a  (segment (start 174.8788 77.3056) (end 177.2288 77.3056) (width 0.25) (layer "F.Cu") (net 9) (tstamp efa8b83d-5f7a-4b53-b6b2-450ddc8be582))\u000a  (segment (start 175.1288 79.1556) (end 175.4288 79.1556) (width 0.25) (layer "F.Cu") (net 9) (tstamp fe802288-a5f5-4cf3-9980-a660be929f22))\u000a  (segment (start 173.7601 73.5101) (end 172.75 72.5) (width 0.25) (layer "F.Cu") (net 10) (tstamp 0f738226-eb0d-461c-8b1e-bacf2cd4d86d))\u000a  (segment (start 173.7601 73.5101) (end 175.4248 71.8454) (width 0.25) (layer "F.Cu") (net 10) (tstamp 1e085144-1e0c-45ee-b546-b16c28af66d5))\u000a  (segment (start 178.6498 70.1704) (end 176.1748 70.1704) (width 0.5) (layer "F.Cu") (net 10) (tstamp 32c8a424-ab9b-4945-83f2-3d14d1967e88))\u000a  (segment (start 171 71.75) (end 171 70.25) (width 0.25) (layer "F.Cu") (net 10) (tstamp 57996f97-f111-43a2-822c-ff5b3190ceb8))\u000a  (segment (start 172.7875 74.4827) (end 173.7601 73.5101) (width 0.25) (layer "F.Cu") (net 10) (tstamp 5f8214c8-c5a7-4578-8469-e9ef5e845dcd))\u000a  (segment (start 171.75 72.5) (end 171 71.75) (width 0.25) (layer "F.Cu") (net 10) (tstamp 6c96f0ec-b696-4a0e-ba0d-9ced6d327cb7))\u000a  (segment (start 176.1498 70.1454) (end 176.1498 71.1204) (width 0.5) (layer "F.Cu") (net 10) (tstamp 7ad2d657-ab20-4e6c-b9ce-ba518227e468))\u000a  (segment (start 177.6498 72.5954) (end 176.1748 71.1204) (width 0.5) (layer "F.Cu") (net 10) (tstamp 7ddb57aa-7f28-46d2-948f-7c57c90da2e7))\u000a  (segment (start 172.75 72.5) (end 171.75 72.5) (width 0.25) (layer "F.Cu") (net 10) (tstamp 9e371d5e-bf7a-479b-94e0-acb02dbdc9dd))\u000a  (segment (start 176.1748 70.1704) (end 176.1498 70.1454) (width 0.5) (layer "F.Cu") (net 10) (tstamp aa58f3ca-06f9-4c2b-8b77-24bfd3f74678))\u000a  (segment (start 172.7875 74.55) (end 172.7875 74.4827) (width 0.25) (layer "F.Cu") (net 10) (tstamp bd7af0c0-7e54-422b-a96e-0e7c4d1be8f2))\u000a  (segment (start 176.1498 71.1204) (end 175.4248 71.8454) (width 0.5) (layer "F.Cu") (net 10) (tstamp ed77c95c-6ab9-4d4d-a24d-4b7e36cc4fe4))\u000a  (segment (start 176.1748 71.1204) (end 176.1498 71.1204) (width 0.5) (layer "F.Cu") (net 10) (tstamp f37c9fc0-af13-4c5f-8cf2-63f7f382bec0))\u000a  (segment (start 170.9125 75.5) (end 169.25 75.5) (width 0.25) (layer "F.Cu") (net 11) (tstamp 1df77341-2ffd-4bb3-a30b-df302806f2a3))\u000a  (segment (start 169.25 75.5) (end 169.1 75.35) (width 0.25) (layer "F.Cu") (net 11) (tstamp 3a70a91c-1d2c-481c-80a0-c99760b5b85b))\u000a  (segment (start 169.75 76) (end 169.1 75.35) (width 0.25) (layer "F.Cu") (net 11) (tstamp 68e55e80-cecc-4ede-94ea-6146aedaaa07))\u000a  (segment (start 169.75 77.5) (end 169.75 76) (width 0.25) (layer "F.Cu") (net 11) (tstamp b053be7c-8fd6-465f-98e8-c1bf574be9c8))\u000a  (segment (start 183.8 77.95) (end 183.4 77.95) (width 0.5) (layer "F.Cu") (net 12) (tstamp 0f08368e-db11-4857-9b9d-9e5158e21697))\u000a  (segment (start 184.5 79.7) (end 184.5 79.05) (width 0.25) (layer "F.Cu") (net 12) (tstamp 1796ad55-649b-41b6-b3f1-6f3bf952d61f))\u000a  (segment (start 182 79.725) (end 184.475 79.725) (width 0.25) (layer "F.Cu") (net 12) (tstamp 1f228b3a-e154-422a-9318-3e71424bf807))\u000a  (segment (start 184.5 79.05) (end 183.4 77.95) (width 0.25) (layer "F.Cu") (net 12) (tstamp 26529aa7-b80d-455e-adca-0be20aaf97cc))\u000a  (segment (start 183.8 74.565381) (end 183.584619 74.35) (width 0.25) (layer "F.Cu") (net 12) (tstamp 27987b86-7f55-4826-b31a-3f4eb7c6e9b8))\u000a  (segment (start 183.4 77.95) (end 183 77.95) (width 0.5) (layer "F.Cu") (net 12) (tstamp 2b50f92a-8cfc-4013-8805-8193b7da971c))\u000a  (segment (start 183.215381 74.35) (end 183 74.565381) (width 0.25) (layer "F.Cu") (net 12) (tstamp 4dcba849-55b6-4efa-b09f-6672984cc947))\u000a  (segment (start 185.45 79.7) (end 186.25 80.5) (width 0.25) (layer "F.Cu") (net 12) (tstamp 54ad3215-d366-4ed5-955c-b259551d37bc))\u000a  (segment (start 183.025 72.525) (end 183 72.5) (width 0.25) (layer "F.Cu") (net 12) (tstamp 55576436-39d8-4217-ba21-9fed32b5ebe4))\u000a  (segment (start 183.8 75.05) (end 183.8 74.565381) (width 0.25) (layer "F.Cu") (net 12) (tstamp 59934391-bbb7-41e3-93a0-96ca67ee2ffc))\u000a  (segment (start 182.6 75.05) (end 183 75.05) (width 0.25) (layer "F.Cu") (net 12) (tstamp 61eb0f30-b01c-4aae-bcec-695ffab0ce81))\u000a  (segment (start 183.4 74.35) (end 183.215381 74.35) (width 0.25) (layer "F.Cu") (net 12) (tstamp 62f6e9f3-cdcd-4063-8fb8-3ede36387ad7))\u000a  (segment (start 183.4 74.35) (end 183.4 72.9) (width 0.25) (layer "F.Cu") (net 12) (tstamp 6b360a52-6aae-4f0c-9ee9-b3c3fd3d9fa5))\u000a  (segment (start 183 74.565381) (end 183 75.05) (width 0.25) (layer "F.Cu") (net 12) (tstamp a5998500-161e-4f20-8f66-f0d16372faeb))\u000a  (segment (start 183 77.95) (end 182.725 77.95) (width 0.5) (layer "F.Cu") (net 12) (tstamp aa68c1cb-dad7-4b63-a95a-a7fc11f07ae3))\u000a  (segment (start 183.584619 74.35) (end 183.4 74.35) (width 0.25) (layer "F.Cu") (net 12) (tstamp cad9dcf1-09c9-423d-b893-adb7ce03983e))\u000a  (segment (start 182 79.25) (end 183 78.25) (width 0.25) (layer "F.Cu") (net 12) (tstamp d832caa2-a920-4860-b154-8a2016446a60))\u000a  (segment (start 182 79.725) (end 182 79.25) (width 0.25) (layer "F.Cu") (net 12) (tstamp d8aab123-a444-457d-b73e-b9915c676ed7))\u000a  (segment (start 184.475 79.725) (end 184.5 79.7) (width 0.25) (layer "F.Cu") (net 12) (tstamp eba33418-8f3c-41de-b448-2c02b29e166b))\u000a  (segment (start 184.5 79.7) (end 185.45 79.7) (width 0.25) (layer "F.Cu") (net 12) (tstamp ef2a4c98-0e65-41d6-947d-e2e451c29df8))\u000a  (segment (start 185.5 72.525) (end 183.025 72.525) (width 0.25) (layer "F.Cu") (net 12) (tstamp f43c2747-8f61-473a-b24c-5bddd4efa448))\u000a  (segment (start 183.4 72.9) (end 183 72.5) (width 0.25) (layer "F.Cu") (net 12) (tstamp fd9ce212-8962-4a58-8144-cfed5b2a306a))\u000a\u000a)\u000a
p4
Vf0822b48ead2239c87a5b80e5a1b346d
p5
(dp6
V82D91010-9C5F-4FFF-A514-EF7C0DDECDFF
p7
(lp8
Vbuck converter V3s
p9
aVbuck_converter_V3s.kicad_sch
p10
asV042DB8DA-CFF7-4AC8-89A4-1790464868EB
p11
(lp12
Vv3s
p13
aVv3s.kicad_sch
p14
as(lp15
V/v3s/buck converter V3s/1V2
p16
aVNet-(C3004-Pad2)
p17
aV/v3s/buck converter V3s/3v3
p18
aVNet-(L3003-Pad2)
p19
aVGND
p20
aV/v3s/buck converter V3s/1V8
p21
aVNet-(C3006-Pad2)
p22
aVNet-(C3005-Pad2)
p23
aV/v3s/buck converter V3s/3V0
p24
aV/v3s/buck converter V3s/5V
p25
aVNet-(L3001-Pad2)
p26
aVNet-(L3002-Pad2)
p27
aV
p28
ag10
(lp29
g14
ag10
aI4
tp30
tp31
Rp32
.